(dp0
S'Scan_12'
p1
(lp2
(lp3
I12
aS'Y12'
p4
aI1
a(dp5
S'281'
p6
F0.0
sS'1783'
p7
F0.0
sS'872'
p8
F0.0
sS'2063'
p9
F0.0
sS'41'
p10
F0.0
sa(dp11
g6
cnumpy.core.multiarray
scalar
p12
(cnumpy
dtype
p13
(S'f8'
p14
I0
I1
tp15
Rp16
(I3
S'<'
p17
NNNI-1
I-1
I0
tp18
bS'\xd3\x92q6\xa3\xb9H\xbf'
p19
tp20
Rp21
sg7
g12
(g16
S'\x9c\xd0{x\xcf\x86G\xbf'
p22
tp23
Rp24
sg8
g12
(g16
S'\xe0\x0el\xac\xf4\xb4G\xbf'
p25
tp26
Rp27
sg9
g12
(g16
S'\x00\xb5\xb0\xf6\xd7_H\xbf'
p28
tp29
Rp30
sg10
g12
(g16
S'\\\x01\x00yl\xcfH\xbf'
p31
tp32
Rp33
saa(lp34
I12
aS'Y12'
p35
aI2
a(dp36
g6
F0.0
sg7
F0.0
sg8
F0.0
sg9
F0.0
sg10
F0.0
sa(dp37
g6
g12
(g16
S'P\xb2\x0f\xa1\xd1\xe2J\xbf'
p38
tp39
Rp40
sg7
g12
(g16
S'\xd1,@\xbd\xd1\x94I\xbf'
p41
tp42
Rp43
sg8
g12
(g16
S'\x83\xe1\x85\x83\x81\xc5I\xbf'
p44
tp45
Rp46
sg9
g12
(g16
S'\x1aQ\x15\xb6\x08\x82J\xbf'
p47
tp48
Rp49
sg10
g12
(g16
S'w\x909\x96\x89\xf9J\xbf'
p50
tp51
Rp52
saa(lp53
I12
aS'Y12'
p54
aI3
a(dp55
g6
F0.0
sg7
F0.0
sg8
F0.0
sg9
F0.0
sg10
F0.0
sa(dp56
g6
g12
(g16
S'\xae~\xd4\x87\x05sM\xbf'
p57
tp58
Rp59
sg7
g12
(g16
S'#/9"\xb7\x04L\xbf'
p60
tp61
Rp62
sg8
g12
(g16
S'#i\xbd`\xf87L\xbf'
p63
tp64
Rp65
sg9
g12
(g16
S'\x1e\xbeH\xe2;\nM\xbf'
p66
tp67
Rp68
sg10
g12
(g16
S'4\x97\xa4\xe5\x84\x8aM\xbf'
p69
tp70
Rp71
saa(lp72
I12
aS'Y12'
p73
aI4
a(dp74
g6
F0.0
sg7
F0.0
sg8
F0.0
sg9
F0.0
sg10
F0.0
sa(dp75
g6
g12
(g16
S'\xdb}\x15\x88\xeaDP\xbf'
p76
tp77
Rp78
sg7
g12
(g16
S'\x15 \xd1\xc0\x96\xf4N\xbf'
p79
tp80
Rp81
sg8
g12
(g16
S'\xeb\xff\x93\xa7H*O\xbf'
p82
tp83
Rp84
sg9
g12
(g16
S'\xeb\xf3$\xb7\xfa\x0bP\xbf'
p85
tp86
Rp87
sg10
g12
(g16
S'\xd7U\xc7F\xe2PP\xbf'
p88
tp89
Rp90
saa(lp91
I12
aS'Y12'
p92
aI5
a(dp93
g6
F0.0
sg7
F0.0
sg8
F0.0
sg9
F0.0
sg10
F0.0
sa(dp94
g6
g12
(g16
S"\xfa1\xdf\xef\xb9'R\xbf"
p95
tp96
Rp97
sg7
g12
(g16
S'\xce\xe7\x99\xa5\xcbEQ\xbf'
p98
tp99
Rp100
sg8
g12
(g16
S'\x0e\xf5\x9cz\xaeaQ\xbf'
p101
tp102
Rp103
sg9
g12
(g16
S'\xc1\x9d\xd2\xfb\xf3\xe9Q\xbf'
p104
tp105
Rp106
sg10
g12
(g16
S'Z2g\x86\xac3R\xbf'
p107
tp108
Rp109
saa(lp110
I12
aS'Y12'
p111
aI6
a(dp112
g6
F0.0
sg7
F0.0
sg8
F0.0
sg9
F0.0
sg10
F0.0
sa(dp113
g6
g12
(g16
S'F\xb3\x14>\xdawT\xbf'
p114
tp115
Rp116
sg7
g12
(g16
S'\x95\x0c\xdf\x91{{S\xbf'
p117
tp118
Rp119
sg8
g12
(g16
S'\xc3s\xa4\x00\x1e\x98S\xbf'
p120
tp121
Rp122
sg9
g12
(g16
S'R\x94\x91\xce>6T\xbf'
p123
tp124
Rp125
sg10
g12
(g16
S'\xcd\xf0\x1e@^\x83T\xbf'
p126
tp127
Rp128
saa(lp129
I12
aS'Y12'
p130
aI7
a(dp131
g6
F0.0
sg7
F0.0
sg8
F0.0
sg9
F0.0
sg10
F0.0
sa(dp132
g6
g12
(g16
S'\xff\x96pId:W\xbf'
p133
tp134
Rp135
sg7
g12
(g16
S'\xb3\x9f\x07}c%V\xbf'
p136
tp137
Rp138
sg8
g12
(g16
S'2\xa2\xf0\x1c}BV\xbf'
p139
tp140
Rp141
sg9
g12
(g16
S'/\xda\x01w\xe7\xf9V\xbf'
p142
tp143
Rp144
sg10
g12
(g16
S'\xeaa\xbc\x91\x19EW\xbf'
p145
tp146
Rp147
saa(lp148
I12
aS'Y12'
p149
aI8
a(dp150
g6
F0.0
sg7
F0.0
sg8
F0.0
sg9
F0.0
sg10
F0.0
sa(dp151
g6
g12
(g16
S'%{,\xd6\x07/Z\xbf'
p152
tp153
Rp154
sg7
g12
(g16
S'\xb6\xe1\xbb\xbb\x8d\x0fY\xbf'
p155
tp156
Rp157
sg8
g12
(g16
S'\xf4\x9ey;.-Y\xbf'
p158
tp159
Rp160
sg9
g12
(g16
S'\x87S-\x86\xd3\xfbY\xbf'
p161
tp162
Rp163
sg10
g12
(g16
S'\xb4\xe7\xee\xa2\xac8Z\xbf'
p164
tp165
Rp166
saa(lp167
I12
aS'Y12'
p168
aI9
a(dp169
g6
F0.0
sg7
F0.0
sg8
F0.0
sg9
F0.0
sg10
F0.0
sa(dp170
g6
g12
(g16
S'Pg\xfc\xc9Lw\\\xbf'
p171
tp172
Rp173
sg7
g12
(g16
S'\xb6Yh\xdd\xb7l[\xbf'
p174
tp175
Rp176
sg8
g12
(g16
S'\xe1(e\xd0O\x8b[\xbf'
p177
tp178
Rp179
sg9
g12
(g16
S'\x80}\xeb\xdd\xe4c\\\xbf'
p180
tp181
Rp182
sg10
g12
(g16
S'\x0f\x06a\xf6\x0c\x80\\\xbf'
p183
tp184
Rp185
saa(lp186
I12
aS'Y12'
p187
aI10
a(dp188
g6
F0.0
sg7
F0.0
sg8
F0.0
sg9
F0.0
sg10
F0.0
sa(dp189
g6
g12
(g16
S'\xd5?B\x01\xdb[\\\xbf'
p190
tp191
Rp192
sg7
g12
(g16
S'U\x84\xc2j~\x8d[\xbf'
p193
tp194
Rp195
sg8
g12
(g16
S':\xa9\xcb\x92\x96\xac[\xbf'
p196
tp197
Rp198
sg9
g12
(g16
S'\xe3V\x067\xf0t\\\xbf'
p199
tp200
Rp201
sg10
g12
(g16
S'\t\xffwZ\x0ed\\\xbf'
p202
tp203
Rp204
saa(lp205
I12
aS'Y12'
p206
aI11
a(dp207
g6
F0.0
sg7
F0.0
sg8
F0.0
sg9
F0.0
sg10
F0.0
sa(dp208
g6
g12
(g16
S'a#B\xe8\xd6\xccW\xbf'
p209
tp210
Rp211
sg7
g12
(g16
S'\xd5\\E\xa3\x06QW\xbf'
p212
tp213
Rp214
sg8
g12
(g16
S'\xae\x04hO\xd1lW\xbf'
p215
tp216
Rp217
sg9
g12
(g16
S'\xcb\xe6|\x07\xe0\x05X\xbf'
p218
tp219
Rp220
sg10
g12
(g16
S'\x87t\xab\xf8\xf9\xd3W\xbf'
p221
tp222
Rp223
saa(lp224
I12
aS'Y12'
p225
aI12
a(dp226
g6
F0.0
sg7
F0.0
sg8
F0.0
sg9
F0.0
sg10
F0.0
sa(dp227
g6
g12
(g16
S'\xe6\xa5U\xc9$\xa4K\xbf'
p228
tp229
Rp230
sg7
g12
(g16
S'\xd6\xda\x9du(>K\xbf'
p231
tp232
Rp233
sg8
g12
(g16
S'\x0c\xa8\xee\xc0\\`K\xbf'
p234
tp235
Rp236
sg9
g12
(g16
S'=m\x99\xc3_\x04L\xbf'
p237
tp238
Rp239
sg10
g12
(g16
S'\x98\xa9\x18\xef\xe9\xacK\xbf'
p240
tp241
Rp242
saa(lp243
I12
aS'Y12'
p244
aI13
a(dp245
g6
F0.0
sg7
F0.0
sg8
F0.0
sg9
F0.0
sg10
F0.0
sa(dp246
g6
g12
(g16
S'\x00\x00\x00\x00\x00\x00\x00\x00'
p247
tp248
Rp249
sg7
g12
(g16
S'\x00\x00\x00\x00\x00\x00\x00\x00'
p250
tp251
Rp252
sg8
g12
(g16
S'\x00\x00\x00\x00\x00\x00\x00\x00'
p253
tp254
Rp255
sg9
g12
(g16
S'\x00\x00\x00\x00\x00\x00\x00\x00'
p256
tp257
Rp258
sg10
g12
(g16
S'\x00\x00\x00\x00\x00\x00\x00\x00'
p259
tp260
Rp261
saa(lp262
I12
aS'Y12'
p263
aI14
a(dp264
g6
F0.0
sg7
F0.0
sg8
F0.0
sg9
F0.0
sg10
F0.0
sa(dp265
g6
g12
(g16
S'\x89\x05\x8a\xba\xf1\xa3K?'
p266
tp267
Rp268
sg7
g12
(g16
S'\xa0\xc1\x04b\t>K?'
p269
tp270
Rp271
sg8
g12
(g16
S'\xfdD\xb0\x1e0`K?'
p272
tp273
Rp274
sg9
g12
(g16
S'`F\x1b\x814\x04L?'
p275
tp276
Rp277
sg10
g12
(g16
S'L\xaa\xfa3\xc4\xacK?'
p278
tp279
Rp280
saa(lp281
I12
aS'Y12'
p282
aI15
a(dp283
g6
F0.0
sg7
F0.0
sg8
F0.0
sg9
F0.0
sg10
F0.0
sa(dp284
g6
g12
(g16
S'\xcf\xc8\xb4\xda\xd1\xcbW?'
p285
tp286
Rp287
sg7
g12
(g16
S'\xb4\n\xd6\xfc%PW?'
p288
tp289
Rp290
sg8
g12
(g16
S'\xb0si\x00\xe6kW?'
p291
tp292
Rp293
sg9
g12
(g16
S'\xe9\xa3\x86\x95\xe3\x04X?'
p294
tp295
Rp296
sg10
g12
(g16
S'!\x00\x97J\xfe\xd2W?'
p297
tp298
Rp299
saa(lp300
I12
aS'Y12'
p301
aI16
a(dp302
g6
F0.0
sg7
F0.0
sg8
F0.0
sg9
F0.0
sg10
F0.0
sa(dp303
g6
g12
(g16
S'\xd57\xd3{6Z\\?'
p304
tp305
Rp306
sg7
g12
(g16
S'SKp\x9a\x19\x8c[?'
p307
tp308
Rp309
sg8
g12
(g16
S'\x1d\x16Q\xb0$\xab[?'
p310
tp311
Rp312
sg9
g12
(g16
S'\xd3T\x82\xfcTs\\?'
p313
tp314
Rp315
sg10
g12
(g16
S'\xf5\xb9\xfb\xe9\x83b\\?'
p316
tp317
Rp318
saa(lp319
I12
aS'Y12'
p320
aI17
a(dp321
g6
F0.0
sg7
F0.0
sg8
F0.0
sg9
F0.0
sg10
F0.0
sa(dp322
g6
g12
(g16
S'\xe1A\xca\x81\xfft\\?'
p323
tp324
Rp325
sg7
g12
(g16
S'\xd9Q\x97\xd3\xadj[?'
p326
tp327
Rp328
sg8
g12
(g16
S'\xc7\xa9\xdc\xb5Q\x89[?'
p329
tp330
Rp331
sg9
g12
(g16
S'\xfa\x1dT<\x97a\\?'
p332
tp333
Rp334
sg10
g12
(g16
S'q\xe6{\xe7\xe6}\\?'
p335
tp336
Rp337
saa(lp338
I12
aS'Y12'
p339
aI18
a(dp340
g6
F0.0
sg7
F0.0
sg8
F0.0
sg9
F0.0
sg10
F0.0
sa(dp341
g6
g12
(g16
S'|\x08\xf5\xd6\xb5,Z?'
p342
tp343
Rp344
sg7
g12
(g16
S'_\xe0\xe5p\x88\rY?'
p345
tp346
Rp347
sg8
g12
(g16
S'\x82\xb0\xee\x10*+Y?'
p348
tp349
Rp350
sg9
g12
(g16
S'\rz\n\xe9x\xf9Y?'
p351
tp352
Rp353
sg10
g12
(g16
S'7\xf3\xb1\x07s6Z?'
p354
tp355
Rp356
saa(lp357
I12
aS'Y12'
p358
aI19
a(dp359
g6
F0.0
sg7
F0.0
sg8
F0.0
sg9
F0.0
sg10
F0.0
sa(dp360
g6
g12
(g16
S'V\x92\xf6\xd4\x058W?'
p361
tp362
Rp363
sg7
g12
(g16
S'!\xa9D\x96`#V?'
p364
tp365
Rp366
sg8
g12
(g16
S'\x9d\xce\xe0>t@V?'
p367
tp368
Rp369
sg9
g12
(g16
S'\x17\x99\xe7\x0b\x83\xf7V?'
p370
tp371
Rp372
sg10
g12
(g16
S'\x08\x07\xc7v\xcdBW?'
p373
tp374
Rp375
saa(lp376
I12
aS'Y12'
p377
aI20
a(dp378
g6
F0.0
sg7
F0.0
sg8
F0.0
sg9
F0.0
sg10
F0.0
sa(dp379
g6
g12
(g16
S'klv\x0f\x93uT?'
p380
tp381
Rp382
sg7
g12
(g16
S'"\x0f\x8e\xc3\x81yS?'
p383
tp384
Rp385
sg8
g12
(g16
S'o0\x8a@!\x96S?'
p386
tp387
Rp388
sg9
g12
(g16
S'\xadU\x8a\xae\xef3T?'
p389
tp390
Rp391
sg10
g12
(g16
S'>\xcb\xa1\xd54\x81T?'
p392
tp393
Rp394
saa(lp395
I12
aS'Y12'
p396
aI21
a(dp397
g6
F0.0
sg7
F0.0
sg8
F0.0
sg9
F0.0
sg10
F0.0
sa(dp398
g6
g12
(g16
S'M\x1eG\xd9\xf6%R?'
p399
tp400
Rp401
sg7
g12
(g16
S'\xebm\xcawIDQ?'
p402
tp403
Rp404
sg8
g12
(g16
S'\x06\x11&\xf74`Q?'
p405
tp406
Rp407
sg9
g12
(g16
S'\xc7\x85&I$\xe8Q?'
p408
tp409
Rp410
sg10
g12
(g16
S'\xa23\x81\xb7\x0e2R?'
p411
tp412
Rp413
saa(lp414
I12
aS'Y12'
p415
aI22
a(dp416
g6
F0.0
sg7
F0.0
sg8
F0.0
sg9
F0.0
sg10
F0.0
sa(dp417
g6
g12
(g16
S'\xbc\x04\x1d\x16\x16CP?'
p418
tp419
Rp420
sg7
g12
(g16
S'\x11 w\x1fm\xf1N?'
p421
tp422
Rp423
sg8
g12
(g16
S"\xfe\xe9\xbfC('O?"
p424
tp425
Rp426
sg9
g12
(g16
S',\x1aM@\x19\nP?'
p427
tp428
Rp429
sg10
g12
(g16
S'[\x1d\x7f\x05-OP?'
p430
tp431
Rp432
saa(lp433
I12
aS'Y12'
p434
aI23
a(dp435
g6
F0.0
sg7
F0.0
sg8
F0.0
sg9
F0.0
sg10
F0.0
sa(dp436
g6
g12
(g16
S'\xee+\xd2b^oM?'
p437
tp438
Rp439
sg7
g12
(g16
S"'\x84eX\x86\x01L?"
p440
tp441
Rp442
sg8
g12
(g16
S'\x00l\x01\xff\xd04L?'
p443
tp444
Rp445
sg9
g12
(g16
S'\xc1\xf8\x93z\x8b\x06M?'
p446
tp447
Rp448
sg10
g12
(g16
S'\xc7\xd1\x06\x11\x05\x87M?'
p449
tp450
Rp451
saa(lp452
I12
aS'Y12'
p453
aI24
a(dp454
g6
F0.0
sg7
F0.0
sg8
F0.0
sg9
F0.0
sg10
F0.0
sa(dp455
g6
g12
(g16
S'\xd3\xe7G<\x05\xdfJ?'
p456
tp457
Rp458
sg7
g12
(g16
S'V\xe4\x97\xc6\x88\x91I?'
p459
tp460
Rp461
sg8
g12
(g16
S'\xf5\xd4S\xa7;\xc2I?'
p462
tp463
Rp464
sg9
g12
(g16
S'^M\x86 A~J?'
p465
tp466
Rp467
sg10
g12
(g16
S'\x8d\xdch\xb3\xe4\xf5J?'
p468
tp469
Rp470
saa(lp471
I12
aS'Y12'
p472
aI25
a(dp473
g6
F0.0
sg7
F0.0
sg8
F0.0
sg9
F0.0
sg10
F0.0
sa(dp474
g6
g12
(g16
S'\xa8\xcc\xc5%\xee\xb4H?'
p475
tp476
Rp477
sg7
g12
(g16
S'D\xf9\xf2l\xac\x82G?'
p478
tp479
Rp480
sg8
g12
(g16
S'<AO\xa0\xc7\xb0G?'
p481
tp482
Rp483
sg9
g12
(g16
S'\xaa`\x8c\xd2([H?'
p484
tp485
Rp486
sg10
g12
(g16
S'\x00^\x10\xb0\xda\xcaH?'
p487
tp488
Rp489
saasS'Scan_10'
p490
(lp491
(lp492
I10
aS'Y10'
p493
aI1
a(dp494
S'281'
p495
F0.0
sS'1783'
p496
F0.0
sS'872'
p497
F0.0
sS'2063'
p498
F0.0
sS'41'
p499
F0.0
sa(dp500
g495
g12
(g16
S'D\x97\r\x1d\x0bXI\xbf'
p501
tp502
Rp503
sg496
g12
(g16
S"\xc5\x90'}T\x19H\xbf"
p504
tp505
Rp506
sg497
g12
(g16
S'\x1b\xbb\x1fN\xc7GH\xbf'
p507
tp508
Rp509
sg498
g12
(g16
S'[\xee\x92$U\xf9H\xbf'
p510
tp511
Rp512
sg499
g12
(g16
S'{\xb5\xc4\x87\x89hI\xbf'
p513
tp514
Rp515
saa(lp516
I10
aS'Y10'
p517
aI2
a(dp518
g495
F0.0
sg496
F0.0
sg497
F0.0
sg498
F0.0
sg499
F0.0
sa(dp519
g495
g12
(g16
S'\x87k;\xc8\x84\x97K\xbf'
p520
tp521
Rp522
sg496
g12
(g16
S'V\xcb%\xa0v<J\xbf'
p523
tp524
Rp525
sg497
g12
(g16
S'\\\xd8\xff\xdd\xcfmJ\xbf'
p526
tp527
Rp528
sg498
g12
(g16
S'Xf.\xfey0K\xbf'
p529
tp530
Rp531
sg499
g12
(g16
S'/yK\xd13\xa8K\xbf'
p532
tp533
Rp534
saa(lp535
I10
aS'Y10'
p536
aI3
a(dp537
g495
F0.0
sg496
F0.0
sg497
F0.0
sg498
F0.0
sg499
F0.0
sa(dp538
g495
g12
(g16
S'=\x9c\x9d\x0f\x11EN\xbf'
p539
tp540
Rp541
sg496
g12
(g16
S'5W&\x8cV\xc8L\xbf'
p542
tp543
Rp544
sg497
g12
(g16
S'\xbb\xa4\n\xf9\xb7\xfcL\xbf'
p545
tp546
Rp547
sg498
g12
(g16
S'\xeaj\xc1\xdb*\xd4M\xbf'
p548
tp549
Rp550
sg499
g12
(g16
S'\xed\xe6L\xa6\x96UN\xbf'
p551
tp552
Rp553
saa(lp554
I10
aS'Y10'
p555
aI4
a(dp556
g495
F0.0
sg496
F0.0
sg497
F0.0
sg498
F0.0
sg499
F0.0
sa(dp557
g495
g12
(g16
S'\x89\xeb\x88\xc7\x8a\xc0P\xbf'
p558
tp559
Rp560
sg496
g12
(g16
S'\xcb\xafF\xd4T\xdcO\xbf'
p561
tp562
Rp563
sg497
g12
(g16
S'\xc5/\xa7\xb8\xc9\tP\xbf'
p564
tp565
Rp566
sg498
g12
(g16
S':}V\x0bV\x82P\xbf'
p567
tp568
Rp569
sg499
g12
(g16
S'w\\\xff9a\xc8P\xbf'
p570
tp571
Rp572
saa(lp573
I10
aS'Y10'
p574
aI5
a(dp575
g495
F0.0
sg496
F0.0
sg497
F0.0
sg498
F0.0
sg499
F0.0
sa(dp576
g495
g12
(g16
S'\x98\xd5Q\x07\x99\xbaR\xbf'
p577
tp578
Rp579
sg496
g12
(g16
S'\xd5\x84&\xbc\x1b\xd1Q\xbf'
p580
tp581
Rp582
sg497
g12
(g16
S'^\x1f\xfc\x06\xb1\xedQ\xbf'
p583
tp584
Rp585
sg498
g12
(g16
S'x\xf1w"+vR\xbf'
p586
tp587
Rp588
sg499
g12
(g16
S'M\xa8\x1aae\xc1R\xbf'
p589
tp590
Rp591
saa(lp592
I10
aS'Y10'
p593
aI6
a(dp594
g495
F0.0
sg496
F0.0
sg497
F0.0
sg498
F0.0
sg499
F0.0
sa(dp595
g495
g12
(g16
S'\x99|\x91\xf2\xd2!U\xbf'
p596
tp597
Rp598
sg496
g12
(g16
S'\x97\xda\x9ep\xcd T\xbf'
p599
tp600
Rp601
sg497
g12
(g16
S'j$\x04\x8a\xa6<T\xbf'
p602
tp603
Rp604
sg498
g12
(g16
S'\xd9\x0c\xbb\xdcY\xd8T\xbf'
p605
tp606
Rp607
sg499
g12
(g16
S'|(=\t\x8f&U\xbf'
p608
tp609
Rp610
saa(lp611
I10
aS'Y10'
p612
aI7
a(dp613
g495
F0.0
sg496
F0.0
sg497
F0.0
sg498
F0.0
sg499
F0.0
sa(dp614
g495
g12
(g16
S'IKRSr\xebW\xbf'
p615
tp616
Rp617
sg496
g12
(g16
S'\x15t\x97\x9e\xad\xdaV\xbf'
p618
tp619
Rp620
sg497
g12
(g16
S'^\xc1\x92\xfa\x96\xf1V\xbf'
p621
tp622
Rp623
sg498
g12
(g16
S'\x1f\x048\xfcf\xa2W\xbf'
p624
tp625
Rp626
sg499
g12
(g16
S'\xdfa\xf54\x9d\xecW\xbf'
p627
tp628
Rp629
saa(lp630
I10
aS'Y10'
p631
aI8
a(dp632
g495
F0.0
sg496
F0.0
sg497
F0.0
sg498
F0.0
sg499
F0.0
sa(dp633
g495
g12
(g16
S'z)^\xc1\xce\xbbZ\xbf'
p634
tp635
Rp636
sg496
g12
(g16
S'\xb6\xbe]\xb2\xc7\xb1Y\xbf'
p637
tp638
Rp639
sg497
g12
(g16
S'\xc5\xb5\x1a\xf3-\xbcY\xbf'
p640
tp641
Rp642
sg498
g12
(g16
S'\x05\xe1\x9e\xcb9\x7fZ\xbf'
p643
tp644
Rp645
sg499
g12
(g16
S',[p\x18\xad\xb7Z\xbf'
p646
tp647
Rp648
saa(lp649
I10
aS'Y10'
p650
aI9
a(dp651
g495
F0.0
sg496
F0.0
sg497
F0.0
sg498
F0.0
sg499
F0.0
sa(dp652
g495
g12
(g16
S'bH\xd9\x91\xcb\x9c\\\xbf'
p653
tp654
Rp655
sg496
g12
(g16
S'\xb0x\xe1\xd3F\xbe[\xbf'
p656
tp657
Rp658
sg497
g12
(g16
S'\xd1\x89\xd1\xe61\xb3[\xbf'
p659
tp660
Rp661
sg498
g12
(g16
S'\xf4\x88\x04]\x1d}\\\xbf'
p662
tp663
Rp664
sg499
g12
(g16
S'\x1b\xd7t\x0f?\x92\\\xbf'
p665
tp666
Rp667
saa(lp668
I10
aS'Y10'
p669
aI10
a(dp670
g495
F0.0
sg496
F0.0
sg497
F0.0
sg498
F0.0
sg499
F0.0
sa(dp671
g495
g12
(g16
S']\xb0!\xc0\x1c\xee[\xbf'
p672
tp673
Rp674
sg496
g12
(g16
S'\x07I\x0c\x1b\x06][\xbf'
p675
tp676
Rp677
sg497
g12
(g16
S'RRn\xa9\xad9[\xbf'
p678
tp679
Rp680
sg498
g12
(g16
S'\xee\x07j\x83\t\xf5[\xbf'
p681
tp682
Rp683
sg499
g12
(g16
S'\x06\xc4)\xd6T\xde[\xbf'
p684
tp685
Rp686
saa(lp687
I10
aS'Y10'
p688
aI11
a(dp689
g495
F0.0
sg496
F0.0
sg497
F0.0
sg498
F0.0
sg499
F0.0
sa(dp690
g495
g12
(g16
S'\xdb!*\x03\xb5\xf8V\xbf'
p691
tp692
Rp693
sg496
g12
(g16
S'F\xc1]\xbcR\xb9V\xbf'
p694
tp695
Rp696
sg497
g12
(g16
S'\x06\xd6\x9d\xfb\xad\x89V\xbf'
p697
tp698
Rp699
sg498
g12
(g16
S'b!\x8d\x15l\x1bW\xbf'
p700
tp701
Rp702
sg499
g12
(g16
S'\xd9\xfb\xc1\x9b/\xe8V\xbf'
p703
tp704
Rp705
saa(lp706
I10
aS'Y10'
p707
aI12
a(dp708
g495
F0.0
sg496
F0.0
sg497
F0.0
sg498
F0.0
sg499
F0.0
sa(dp709
g495
g12
(g16
S'\x04S\xa5\x9c\x80KJ\xbf'
p710
tp711
Rp712
sg496
g12
(g16
S'y.{\xe7>0J\xbf'
p713
tp714
Rp715
sg497
g12
(g16
S'1Z\x1a\xed\xd3\xeaI\xbf'
p716
tp717
Rp718
sg498
g12
(g16
S'\xb82\xd1\xd2\x9a\x8aJ\xbf'
p719
tp720
Rp721
sg499
g12
(g16
S'\n\xa47\xd1\xff5J\xbf'
p722
tp723
Rp724
saa(lp725
I10
aS'Y10'
p726
aI13
a(dp727
g495
F0.0
sg496
F0.0
sg497
F0.0
sg498
F0.0
sg499
F0.0
sa(dp728
g495
g12
(g16
S'\x00\x00\x00\x00\x00\x00\x00\x00'
p729
tp730
Rp731
sg496
g12
(g16
S'\x00\x00\x00\x00\x00\x00\x00\x00'
p732
tp733
Rp734
sg497
g12
(g16
S'\x00\x00\x00\x00\x00\x00\x00\x00'
p735
tp736
Rp737
sg498
g12
(g16
S'\x00\x00\x00\x00\x00\x00\x00\x00'
p738
tp739
Rp740
sg499
g12
(g16
S'\x00\x00\x00\x00\x00\x00\x00\x00'
p741
tp742
Rp743
saa(lp744
I10
aS'Y10'
p745
aI14
a(dp746
g495
F0.0
sg496
F0.0
sg497
F0.0
sg498
F0.0
sg499
F0.0
sa(dp747
g495
g12
(g16
S'\x92\x1du\xdc7KJ?'
p748
tp749
Rp750
sg496
g12
(g16
S'M\xaa~\x8a\xef/J?'
p751
tp752
Rp753
sg497
g12
(g16
S'\xde\xe8\xbe)\x89\xeaI?'
p754
tp755
Rp756
sg498
g12
(g16
S'\xac\xa8\xd4O4\x8aJ?'
p757
tp758
Rp759
sg499
g12
(g16
S'-P\xa9\xa2\xab5J?'
p760
tp761
Rp762
saa(lp763
I10
aS'Y10'
p764
aI15
a(dp765
g495
F0.0
sg496
F0.0
sg497
F0.0
sg498
F0.0
sg499
F0.0
sa(dp766
g495
g12
(g16
S'i\xc2\x8dH\x1c\xf9V?'
p767
tp768
Rp769
sg496
g12
(g16
S'\xd3\xa9\x92\xe9\xb3\xb9V?'
p770
tp771
Rp772
sg497
g12
(g16
S'\xd1\xc1\x99?\x18\x8aV?'
p773
tp774
Rp775
sg498
g12
(g16
S'\x1e\x8e\xa3#\xc3\x1bW?'
p776
tp777
Rp778
sg499
g12
(g16
S'\xf6V\x13\x03\x8b\xe8V?'
p779
tp780
Rp781
saa(lp782
I10
aS'Y10'
p783
aI16
a(dp784
g495
F0.0
sg496
F0.0
sg497
F0.0
sg498
F0.0
sg499
F0.0
sa(dp785
g495
g12
(g16
S'\xf1\xd5\xf8r\x94\xed[?'
p786
tp787
Rp788
sg496
g12
(g16
S'\xa2w\xd32\x85\\[?'
p789
tp790
Rp791
sg497
g12
(g16
S'\x1a\xb0\xab\x10:9[?'
p792
tp793
Rp794
sg498
g12
(g16
S'\x0ciQmy\xf4[?'
p795
tp796
Rp797
sg499
g12
(g16
S'B&\x90\\\xcc\xdd[?'
p798
tp799
Rp800
saa(lp801
I10
aS'Y10'
p802
aI17
a(dp803
g495
F0.0
sg496
F0.0
sg497
F0.0
sg498
F0.0
sg499
F0.0
sa(dp804
g495
g12
(g16
S'\x9aN\x18\xdb\xdd\x9b\\?'
p805
tp806
Rp807
sg496
g12
(g16
S'\xeb\xb3\x8a\xcei\xbd[?'
p808
tp809
Rp810
sg497
g12
(g16
S'-P\x82KX\xb2[?'
p811
tp812
Rp813
sg498
g12
(g16
S'\xf8\xa3[\x9a$|\\?'
p814
tp815
Rp816
sg499
g12
(g16
S'\xec\xa6j\xbeV\x91\\?'
p817
tp818
Rp819
saa(lp820
I10
aS'Y10'
p821
aI18
a(dp822
g495
F0.0
sg496
F0.0
sg497
F0.0
sg498
F0.0
sg499
F0.0
sa(dp823
g495
g12
(g16
S'\x04\xff\xcf\x1a\xa3\xbaZ?'
p824
tp825
Rp826
sg496
g12
(g16
S'R\x919\x89\xb2\xb0Y?'
p827
tp828
Rp829
sg497
g12
(g16
S'\x89\x00\xe1X\x1d\xbbY?'
p830
tp831
Rp832
sg498
g12
(g16
S'\xdb\x98\x8a\xbb\x1a~Z?'
p833
tp834
Rp835
sg499
g12
(g16
S'\xfd\x8b*\x00\x9e\xb6Z?'
p836
tp837
Rp838
saa(lp839
I10
aS'Y10'
p840
aI19
a(dp841
g495
F0.0
sg496
F0.0
sg497
F0.0
sg498
F0.0
sg499
F0.0
sa(dp842
g495
g12
(g16
S'\xc5N\xb7 \x92\xeaW?'
p843
tp844
Rp845
sg496
g12
(g16
S'\xca\xa5;{\xdd\xd9V?'
p846
tp847
Rp848
sg497
g12
(g16
S'\x00\xc2\xbf\x03\xd9\xf0V?'
p849
tp850
Rp851
sg498
g12
(g16
S'\xd2\xa3\x03l\x89\xa1W?'
p852
tp853
Rp854
sg499
g12
(g16
S'; \xc7E\xe3\xebW?'
p855
tp856
Rp857
saa(lp858
I10
aS'Y10'
p859
aI20
a(dp860
g495
F0.0
sg496
F0.0
sg497
F0.0
sg498
F0.0
sg499
F0.0
sa(dp861
g495
g12
(g16
S'/\xb2\x9f\xd2\xcd U?'
p862
tp863
Rp864
sg496
g12
(g16
S'\xf44f \xdc\x1fT?'
p865
tp866
Rp867
sg497
g12
(g16
S'\x11\xa4\x0e,\xba;T?'
p868
tp869
Rp870
sg498
g12
(g16
S'\x0cd\x11\xdcK\xd7T?'
p871
tp872
Rp873
sg499
g12
(g16
S'\xf2Z|Q\xa5%U?'
p874
tp875
Rp876
saa(lp877
I10
aS'Y10'
p878
aI21
a(dp879
g495
F0.0
sg496
F0.0
sg497
F0.0
sg498
F0.0
sg499
F0.0
sa(dp880
g495
g12
(g16
S'\x94G\xf4\xcb\x92\xb9R?'
p881
tp882
Rp883
sg496
g12
(g16
S'\xb8\xec\xb7\xb2(\xd0Q?'
p884
tp885
Rp886
sg497
g12
(g16
S's+\x10\xd9\xc0\xecQ?'
p887
tp888
Rp889
sg498
g12
(g16
S'\xb4\xf4,\x0e\x16uR?'
p890
tp891
Rp892
sg499
g12
(g16
S'\x0b\xce\xb9;n\xc0R?'
p893
tp894
Rp895
saa(lp896
I10
aS'Y10'
p897
aI22
a(dp898
g495
F0.0
sg496
F0.0
sg497
F0.0
sg498
F0.0
sg499
F0.0
sa(dp899
g495
g12
(g16
S'\x7f;\xe3+b\xbfP?'
p900
tp901
Rp902
sg496
g12
(g16
S'q@O\xe4-\xdaO?'
p903
tp904
Rp905
sg497
g12
(g16
S'\xda=\xbe\x1f\xb7\x08P?'
p906
tp907
Rp908
sg498
g12
(g16
S'\x13\xa5\x1eN&\x81P?'
p909
tp910
Rp911
sg499
g12
(g16
S'\xf8|=\x0bD\xc7P?'
p912
tp913
Rp914
saa(lp915
I10
aS'Y10'
p916
aI23
a(dp917
g495
F0.0
sg496
F0.0
sg497
F0.0
sg498
F0.0
sg499
F0.0
sa(dp918
g495
g12
(g16
S'\xb8\xc7\xd2\xd2\xf2AN?'
p919
tp920
Rp921
sg496
g12
(g16
S'\xbb\xf0\x02\xa5o\xc5L?'
p922
tp923
Rp924
sg497
g12
(g16
S'\xa6\x9c\xb5"\xd1\xf9L?'
p925
tp926
Rp927
sg498
g12
(g16
S'm\x1d\x8d\x7f\x02\xd1M?'
p928
tp929
Rp930
sg499
g12
(g16
S'\x82\xf3\xfc\xb6\x97RN?'
p931
tp932
Rp933
saa(lp934
I10
aS'Y10'
p935
aI24
a(dp936
g495
F0.0
sg496
F0.0
sg497
F0.0
sg498
F0.0
sg499
F0.0
sa(dp937
g495
g12
(g16
S'L\xa7\xf0\x10;\x94K?'
p938
tp939
Rp940
sg496
g12
(g16
S'\xb2\xe7D%`9J?'
p941
tp942
Rp943
sg497
g12
(g16
S'wv\x0b\xb3\xc2jJ?'
p944
tp945
Rp946
sg498
g12
(g16
S'\xd1u\xcb{&-K?'
p947
tp948
Rp949
sg499
g12
(g16
S'\xe85\xe9!\x0f\xa5K?'
p950
tp951
Rp952
saa(lp953
I10
aS'Y10'
p954
aI25
a(dp955
g495
F0.0
sg496
F0.0
sg497
F0.0
sg498
F0.0
sg499
F0.0
sa(dp956
g495
g12
(g16
S'B?\x1b\xe3\xdeTI?'
p957
tp958
Rp959
sg496
g12
(g16
S'ygI\xca[\x16H?'
p960
tp961
Rp962
sg497
g12
(g16
S"'\x84\xaa5\xd6DH?"
p963
tp964
Rp965
sg498
g12
(g16
S'2\x14\xad\xe3!\xf6H?'
p966
tp967
Rp968
sg499
g12
(g16
S'\xf6\xc2\xc3P\x84eI?'
p969
tp970
Rp971
saasS'Scan_11'
p972
(lp973
(lp974
I11
aS'X11'
p975
aI1
a(dp976
S'281'
p977
g12
(g16
S'\xdb\x14\xb0\xe3\xe1\x80K\xbf'
p978
tp979
Rp980
sS'1783'
p981
g12
(g16
S'\xdb\xb5\x8b]e0J\xbf'
p982
tp983
Rp984
sS'872'
p985
g12
(g16
S'\x00K\xe9\x06*wJ\xbf'
p986
tp987
Rp988
sS'2063'
p989
g12
(g16
S'\xda\x8dW\xbc`\x12K\xbf'
p990
tp991
Rp992
sS'41'
p993
g12
(g16
S'}:\x13\xd7\xdd\xa5K\xbf'
p994
tp995
Rp996
sa(dp997
g977
F0.0
sg981
F0.0
sg985
F0.0
sg989
F0.0
sg993
F0.0
saa(lp998
I11
aS'X11'
p999
aI2
a(dp1000
g977
g12
(g16
S'\x91\x05\xf7O\x06\x1dN\xbf'
p1001
tp1002
Rp1003
sg981
g12
(g16
S'\x90\x855\xe0\x85\xadL\xbf'
p1004
tp1005
Rp1006
sg985
g12
(g16
S',\xd5\xee\x9e%\xfdL\xbf'
p1007
tp1008
Rp1009
sg989
g12
(g16
S'\xf5\x8a\xebd\xfe\xa2M\xbf'
p1010
tp1011
Rp1012
sg993
g12
(g16
S'*6l\x0c\xe9FN\xbf'
p1013
tp1014
Rp1015
sa(dp1016
g977
F0.0
sg981
F0.0
sg985
F0.0
sg989
F0.0
sg993
F0.0
saa(lp1017
I11
aS'X11'
p1018
aI3
a(dp1019
g977
g12
(g16
S'\xa6\x9a\xac\xddY\xa2P\xbf'
p1020
tp1021
Rp1022
sg981
g12
(g16
S'q\xeb\x18n\xa2\xb0O\xbf'
p1023
tp1024
Rp1025
sg985
g12
(g16
S'\xcd\xa7c;\x92\x05P\xbf'
p1026
tp1027
Rp1028
sg989
g12
(g16
S'C\x828\x90\xaf^P\xbf'
p1029
tp1030
Rp1031
sg993
g12
(g16
S'{O\xf8\xc5F\xbaP\xbf'
p1032
tp1033
Rp1034
sa(dp1035
g977
F0.0
sg981
F0.0
sg985
F0.0
sg989
F0.0
sg993
F0.0
saa(lp1036
I11
aS'X11'
p1037
aI4
a(dp1038
g977
g12
(g16
S'R\xc5a\xb8\xf9\x8dR\xbf'
p1039
tp1040
Rp1041
sg981
g12
(g16
S'\xe8\x80\x14e\xdc\xaeQ\xbf'
p1042
tp1043
Rp1044
sg985
g12
(g16
S'\xfa\xdfv\xb18\xe2Q\xbf'
p1045
tp1046
Rp1047
sg989
g12
(g16
S'\x00\x028Y\x81CR\xbf'
p1048
tp1049
Rp1050
sg993
g12
(g16
S'?\x07C8!\xa9R\xbf'
p1051
tp1052
Rp1053
sa(dp1054
g977
F0.0
sg981
F0.0
sg985
F0.0
sg989
F0.0
sg993
F0.0
saa(lp1055
I11
aS'X11'
p1056
aI5
a(dp1057
g977
g12
(g16
S'\xb0\x00I~}\xdfT\xbf'
p1058
tp1059
Rp1060
sg981
g12
(g16
S'9\x18\xea\x17|\xe9S\xbf'
p1061
tp1062
Rp1063
sg985
g12
(g16
S'SJ\xd8\x11D"T\xbf'
p1064
tp1065
Rp1066
sg989
g12
(g16
S'\xcbG\xa1\xc7;\x90T\xbf'
p1067
tp1068
Rp1069
sg993
g12
(g16
S'\xaa6\x18/(\xfdT\xbf'
p1070
tp1071
Rp1072
sa(dp1073
g977
F0.0
sg981
F0.0
sg985
F0.0
sg989
F0.0
sg993
F0.0
saa(lp1074
I11
aS'X11'
p1075
aI6
a(dp1076
g977
g12
(g16
S'\x9c\x01\xef2\x04\x90W\xbf'
p1077
tp1078
Rp1079
sg981
g12
(g16
S'\x12|\xe8\x06i\x84V\xbf'
p1080
tp1081
Rp1082
sg985
g12
(g16
S'g\n|\xe5\xd5\xbeV\xbf'
p1083
tp1084
Rp1085
sg989
g12
(g16
S'7\x0f{\tjBW\xbf'
p1086
tp1087
Rp1088
sg993
g12
(g16
S'<\xf17\x0eT\xadW\xbf'
p1089
tp1090
Rp1091
sa(dp1092
g977
F0.0
sg981
F0.0
sg985
F0.0
sg989
F0.0
sg993
F0.0
saa(lp1093
I11
aS'X11'
p1094
aI7
a(dp1095
g977
g12
(g16
S'\xc1\x13C\xf6K_Z\xbf'
p1096
tp1097
Rp1098
sg981
g12
(g16
S'\xca-Q\x8dnEY\xbf'
p1099
tp1100
Rp1101
sg985
g12
(g16
S'b\xb5\xc6\x83@yY\xbf'
p1102
tp1103
Rp1104
sg989
g12
(g16
S'\x9a$\x9850 Z\xbf'
p1105
tp1106
Rp1107
sg993
g12
(g16
S'\x8d\xd9,\xa6\x89vZ\xbf'
p1108
tp1109
Rp1110
sa(dp1111
g977
F0.0
sg981
F0.0
sg985
F0.0
sg989
F0.0
sg993
F0.0
saa(lp1112
I11
aS'X11'
p1113
aI8
a(dp1114
g977
g12
(g16
S'=\xbe\xe4B\x82\xb2\\\xbf'
p1115
tp1116
Rp1117
sg981
g12
(g16
S'\xf8\x96\xf4\xae\\\x99[\xbf'
p1118
tp1119
Rp1120
sg985
g12
(g16
S'\x01n"<\xee\xba[\xbf'
p1121
tp1122
Rp1123
sg989
g12
(g16
S'\xc5\xaaI \x03\x93\\\xbf'
p1124
tp1125
Rp1126
sg993
g12
(g16
S'\x98]c\x0e!\xbc\\\xbf'
p1127
tp1128
Rp1129
sa(dp1130
g977
F0.0
sg981
F0.0
sg985
F0.0
sg989
F0.0
sg993
F0.0
saa(lp1131
I11
aS'X11'
p1132
aI9
a(dp1133
g977
g12
(g16
S'uu\x9a\xcaPy]\xbf'
p1134
tp1135
Rp1136
sg981
g12
(g16
S"\xea\xb7\xbb'\xabv\\\xbf"
p1137
tp1138
Rp1139
sg985
g12
(g16
S'\x0c\xf8l\xc8\xf3{\\\xbf'
p1140
tp1141
Rp1142
sg989
g12
(g16
S'\xeeE\xa3L\xd1\x86]\xbf'
p1143
tp1144
Rp1145
sg993
g12
(g16
S'\xf9\xbd\xdc\xf7\x94o]\xbf'
p1146
tp1147
Rp1148
sa(dp1149
g977
F0.0
sg981
F0.0
sg985
F0.0
sg989
F0.0
sg993
F0.0
saa(lp1150
I11
aS'X11'
p1151
aI10
a(dp1152
g977
g12
(g16
S'M\xe2\xf6R\x9bl[\xbf'
p1153
tp1154
Rp1155
sg981
g12
(g16
S'b\xb9\xf9\x8e^\x97Z\xbf'
p1156
tp1157
Rp1158
sg985
g12
(g16
S"F\xa1'\x968\x80Z\xbf"
p1159
tp1160
Rp1161
sg989
g12
(g16
S'\xd5\x96\x7f1P\xa4[\xbf'
p1162
tp1163
Rp1164
sg993
g12
(g16
S'\xe3\x16\xdf\xdc\xd8P[\xbf'
p1165
tp1166
Rp1167
sa(dp1168
g977
F0.0
sg981
F0.0
sg985
F0.0
sg989
F0.0
sg993
F0.0
saa(lp1169
I11
aS'X11'
p1170
aI11
a(dp1171
g977
g12
(g16
S'^EB\xea~\x93U\xbf'
p1172
tp1173
Rp1174
sg981
g12
(g16
S'{-\x95\xbc\xc1\xfdT\xbf'
p1175
tp1176
Rp1177
sg985
g12
(g16
S'+\xaeW\xfe\x93\xd8T\xbf'
p1178
tp1179
Rp1180
sg989
g12
(g16
S'\xb8\xa7\xae\x0e4\xdcU\xbf'
p1181
tp1182
Rp1183
sg993
g12
(g16
S'Pk9\x03\x17qU\xbf'
p1184
tp1185
Rp1186
sa(dp1187
g977
F0.0
sg981
F0.0
sg985
F0.0
sg989
F0.0
sg993
F0.0
saa(lp1188
I11
aS'X11'
p1189
aI12
a(dp1190
g977
g12
(g16
S'\x1f\xb5-\x88\xc1\xf1G\xbf'
p1191
tp1192
Rp1193
sg981
g12
(g16
S'\xc5\xee\xa8\x08\xc7XG\xbf'
p1194
tp1195
Rp1196
sg985
g12
(g16
S'#\x99b\xcdg!G\xbf'
p1197
tp1198
Rp1199
sg989
g12
(g16
S'-Pt!\xd7WH\xbf'
p1200
tp1201
Rp1202
sg993
g12
(g16
S'\xf5CO\x11X\xc2G\xbf'
p1203
tp1204
Rp1205
sa(dp1206
g977
F0.0
sg981
F0.0
sg985
F0.0
sg989
F0.0
sg993
F0.0
saa(lp1207
I11
aS'X11'
p1208
aI13
a(dp1209
g977
g12
(g16
S'\x00\x00\x00\x00\x00\x00\x00\x00'
p1210
tp1211
Rp1212
sg981
g12
(g16
S'\x00\x00\x00\x00\x00\x00\x00\x00'
p1213
tp1214
Rp1215
sg985
g12
(g16
S'\x00\x00\x00\x00\x00\x00\x00\x00'
p1216
tp1217
Rp1218
sg989
g12
(g16
S'\x00\x00\x00\x00\x00\x00\x00\x00'
p1219
tp1220
Rp1221
sg993
g12
(g16
S'\x00\x00\x00\x00\x00\x00\x00\x00'
p1222
tp1223
Rp1224
sa(dp1225
g977
F0.0
sg981
F0.0
sg985
F0.0
sg989
F0.0
sg993
F0.0
saa(lp1226
I11
aS'X11'
p1227
aI14
a(dp1228
g977
g12
(g16
S'\xf0\x0c\xa8T\x87\xf1G?'
p1229
tp1230
Rp1231
sg981
g12
(g16
S'\xe8\xcf\rZ\xa6XG?'
p1232
tp1233
Rp1234
sg985
g12
(g16
S'\xae\xfa[{/!G?'
p1235
tp1236
Rp1237
sg989
g12
(g16
S'\xc8\xdaU\x1a\x9fWH?'
p1238
tp1239
Rp1240
sg993
g12
(g16
S'\x19\x08\xa1\x04%\xc2G?'
p1241
tp1242
Rp1243
sa(dp1244
g977
F0.0
sg981
F0.0
sg985
F0.0
sg989
F0.0
sg993
F0.0
saa(lp1245
I11
aS'X11'
p1246
aI15
a(dp1247
g977
g12
(g16
S"~SR'\xe8\x92U?"
p1248
tp1249
Rp1250
sg981
g12
(g16
S'\xb0\xe8}vL\xfdT?'
p1251
tp1252
Rp1253
sg985
g12
(g16
S'\xdd\xe6\xd4M\x19\xd8T?'
p1254
tp1255
Rp1256
sg989
g12
(g16
S'5*\x9c\x83\x9e\xdbU?'
p1257
tp1258
Rp1259
sg993
g12
(g16
S'\x8bYx4\x96pU?'
p1260
tp1261
Rp1262
sa(dp1263
g977
F0.0
sg981
F0.0
sg985
F0.0
sg989
F0.0
sg993
F0.0
saa(lp1264
I11
aS'X11'
p1265
aI16
a(dp1266
g977
g12
(g16
S'\xd3\x1bdq\x0ck[?'
p1267
tp1268
Rp1269
sg981
g12
(g16
S'Y\xf2=j\x0e\x96Z?'
p1270
tp1271
Rp1272
sg985
g12
(g16
S'\xb2\xde\xb2T\xf2~Z?'
p1273
tp1274
Rp1275
sg989
g12
(g16
S'\xc8\xeel2\xbe\xa2[?'
p1276
tp1277
Rp1278
sg993
g12
(g16
S'1\xd4\xcc\xdebO[?'
p1279
tp1280
Rp1281
sa(dp1282
g977
F0.0
sg981
F0.0
sg985
F0.0
sg989
F0.0
sg993
F0.0
saa(lp1283
I11
aS'X11'
p1284
aI17
a(dp1285
g977
g12
(g16
S'.F=\xa1\xb6w]?'
p1286
tp1287
Rp1288
sg981
g12
(g16
S'P\xe57\x7f_u\\?'
p1289
tp1290
Rp1291
sg985
g12
(g16
S'\xf6\xb2\xe2y\xaez\\?'
p1292
tp1293
Rp1294
sg989
g12
(g16
S'\x02\xac\x15m#\x85]?'
p1295
tp1296
Rp1297
sg993
g12
(g16
S'5\xdfM\x8e\x1cn]?'
p1298
tp1299
Rp1300
sa(dp1301
g977
F0.0
sg981
F0.0
sg985
F0.0
sg989
F0.0
sg993
F0.0
saa(lp1302
I11
aS'X11'
p1303
aI18
a(dp1304
g977
g12
(g16
S'b\xf34\xed\xec\xaf\\?'
p1305
tp1306
Rp1307
sg981
g12
(g16
S'\xfa2\x87\xe2<\x97[?'
p1308
tp1309
Rp1310
sg985
g12
(g16
S'\xffC\xd2\x89\xd3\xb8[?'
p1311
tp1312
Rp1313
sg989
g12
(g16
S'F\xb9\xf53^\x90\\?'
p1314
tp1315
Rp1316
sg993
g12
(g16
S'sng9\xc6\xb9\\?'
p1317
tp1318
Rp1319
sa(dp1320
g977
F0.0
sg981
F0.0
sg985
F0.0
sg989
F0.0
sg993
F0.0
saa(lp1321
I11
aS'X11'
p1322
aI19
a(dp1323
g977
g12
(g16
S'\x87K\xec\xe9\xcc]Z?'
p1324
tp1325
Rp1326
sg981
g12
(g16
S'3Z\xbd\x1eRDY?'
p1327
tp1328
Rp1329
sg985
g12
(g16
S'F\x0e\x1d\xf35xY?'
p1330
tp1331
Rp1332
sg989
g12
(g16
S'\xe0\xd5"\xb0\xa2\x1eZ?'
p1333
tp1334
Rp1335
sg993
g12
(g16
S'\xccL\xdb\x9aHuZ?'
p1336
tp1337
Rp1338
sa(dp1339
g977
F0.0
sg981
F0.0
sg985
F0.0
sg989
F0.0
sg993
F0.0
saa(lp1340
I11
aS'X11'
p1341
aI20
a(dp1342
g977
g12
(g16
S'@6\xf7\xf9l\x8dW?'
p1343
tp1344
Rp1345
sg981
g12
(g16
S'L\x83?\xb0I\x82V?'
p1346
tp1347
Rp1348
sg985
g12
(g16
S'\xae`\xa2J\xb7\xbcV?'
p1349
tp1350
Rp1351
sg989
g12
(g16
S'\xd9\xf0\x98-\xd4?W?'
p1352
tp1353
Rp1354
sg993
g12
(g16
S'\x11\xecV\xb8\xf6\xaaW?'
p1355
tp1356
Rp1357
sa(dp1358
g977
F0.0
sg981
F0.0
sg985
F0.0
sg989
F0.0
sg993
F0.0
saa(lp1359
I11
aS'X11'
p1360
aI21
a(dp1361
g977
g12
(g16
S'9\xf3A\x03\xa7\xddT?'
p1362
tp1363
Rp1364
sg981
g12
(g16
S'\x18\x99`\xaa\x05\xe8S?'
p1365
tp1366
Rp1367
sg985
g12
(g16
S'3\xb8\xbfF\xd0 T?'
p1368
tp1369
Rp1370
sg989
g12
(g16
S'aw\xa8\xdfP\x8eT?'
p1371
tp1372
Rp1373
sg993
g12
(g16
S'\xe1tiw\x91\xfbT?'
p1374
tp1375
Rp1376
sa(dp1377
g977
F0.0
sg981
F0.0
sg985
F0.0
sg989
F0.0
sg993
F0.0
saa(lp1378
I11
aS'X11'
p1379
aI22
a(dp1380
g977
g12
(g16
S'\xe7\x8a\xe7a\x85\x8bR?'
p1381
tp1382
Rp1383
sg981
g12
(g16
S'\xb6W+D\xd0\xacQ?'
p1384
tp1385
Rp1386
sg985
g12
(g16
S'\xb8$\x89Q.\xe0Q?'
p1387
tp1388
Rp1389
sg989
g12
(g16
S'\x8fp\xc3\x1c\x0bAR?'
p1390
tp1391
Rp1392
sg993
g12
(g16
S'\x9ca\xe03\xf2\xa6R?'
p1393
tp1394
Rp1395
sa(dp1396
g977
F0.0
sg981
F0.0
sg985
F0.0
sg989
F0.0
sg993
F0.0
saa(lp1397
I11
aS'X11'
p1398
aI23
a(dp1399
g977
g12
(g16
S'\x0fJ\x88\xfc0\xa0P?'
p1400
tp1401
Rp1402
sg981
g12
(g16
S'\x1f<\xb0\x88#\xadO?'
p1403
tp1404
Rp1405
sg985
g12
(g16
S'^=\x80\x1d\xd9\x03P?'
p1406
tp1407
Rp1408
sg989
g12
(g16
S'\xb6GW)\x87\\P?'
p1409
tp1410
Rp1411
sg993
g12
(g16
S'\xaej9\x80W\xb8P?'
p1412
tp1413
Rp1414
sa(dp1415
g977
F0.0
sg981
F0.0
sg985
F0.0
sg989
F0.0
sg993
F0.0
saa(lp1416
I11
aS'X11'
p1417
aI24
a(dp1418
g977
g12
(g16
S'\xb1\xf0O\x11\x02\x19N?'
p1419
tp1420
Rp1421
sg981
g12
(g16
S'\xdfx[\x989\xaaL?'
p1422
tp1423
Rp1424
sg985
g12
(g16
S"'\x8c\x03\xdd\xef\xf9L?"
p1425
tp1426
Rp1427
sg989
g12
(g16
S'NGl\x04\xef\x9eM?'
p1428
tp1429
Rp1430
sg993
g12
(g16
S'\xc8{VjECN?'
p1431
tp1432
Rp1433
sa(dp1434
g977
F0.0
sg981
F0.0
sg985
F0.0
sg989
F0.0
sg993
F0.0
saa(lp1435
I11
aS'X11'
p1436
aI25
a(dp1437
g977
g12
(g16
S'\xaa1\xec\x9em|K?'
p1438
tp1439
Rp1440
sg981
g12
(g16
S'\xb0\x949\xd3\xa4,J?'
p1441
tp1442
Rp1443
sg985
g12
(g16
S'\x1b\xd4\xa0\x97jsJ?'
p1444
tp1445
Rp1446
sg989
g12
(g16
S'\xe8\x9f\xe9r\xd1\rK?'
p1447
tp1448
Rp1449
sg993
g12
(g16
S'\xd3\xc8\x199\xbd\xa1K?'
p1450
tp1451
Rp1452
sa(dp1453
g977
F0.0
sg981
F0.0
sg985
F0.0
sg989
F0.0
sg993
F0.0
saasS'Scan_4'
p1454
(lp1455
(lp1456
I4
aS'X4'
p1457
aI1
a(dp1458
S'281'
p1459
g12
(g16
S'<=\xf6\xa1G\x00L\xbf'
p1460
tp1461
Rp1462
sS'1783'
p1463
g12
(g16
S'\x06\xcc\x0f\x8fG\xa3J\xbf'
p1464
tp1465
Rp1466
sS'872'
p1467
g12
(g16
S'\xe3\x05=\x86\xeb\xdcJ\xbf'
p1468
tp1469
Rp1470
sS'2063'
p1471
g12
(g16
S'V\xab\xe2\xc7\x11\x9bK\xbf'
p1472
tp1473
Rp1474
sS'41'
p1475
g12
(g16
S'N\xefja\xa6\x17L\xbf'
p1476
tp1477
Rp1478
sa(dp1479
g1459
F0.0
sg1463
F0.0
sg1467
F0.0
sg1471
F0.0
sg1475
F0.0
saa(lp1480
I4
aS'X4'
p1481
aI2
a(dp1482
g1459
g12
(g16
S'\xaf7\xea&m\x95N\xbf'
p1483
tp1484
Rp1485
sg1463
g12
(g16
S'\xf2\xf2\xc7T\x83\x1aM\xbf'
p1486
tp1487
Rp1488
sg1467
g12
(g16
S'\x8dW\xc1^{YM\xbf'
p1489
tp1490
Rp1491
sg1471
g12
(g16
S"z\xf9\xe6\x08R'N\xbf"
p1492
tp1493
Rp1494
sg1475
g12
(g16
S'!TSfq\xb0N\xbf'
p1495
tp1496
Rp1497
sa(dp1498
g1459
F0.0
sg1463
F0.0
sg1467
F0.0
sg1471
F0.0
sg1475
F0.0
saa(lp1499
I4
aS'X4'
p1500
aI3
a(dp1501
g1459
g12
(g16
S'o\x9f\x89\xa7!\xd8P\xbf'
p1502
tp1503
Rp1504
sg1463
g12
(g16
S'R\xa4^b^\tP\xbf'
p1505
tp1506
Rp1507
sg1467
g12
(g16
S'\x98\x06\x0b\xe4\xde+P\xbf'
p1508
tp1509
Rp1510
sg1471
g12
(g16
S'4\x01w\xdb\x10\x9cP\xbf'
p1511
tp1512
Rp1513
sg1475
g12
(g16
S'"\x9d\x9e\xff\x87\xe7P\xbf'
p1514
tp1515
Rp1516
sa(dp1517
g1459
F0.0
sg1463
F0.0
sg1467
F0.0
sg1471
F0.0
sg1475
F0.0
saa(lp1518
I4
aS'X4'
p1519
aI4
a(dp1520
g1459
g12
(g16
S'\x94\x19\xd7_\xd8\xbaR\xbf'
p1521
tp1522
Rp1523
sg1463
g12
(g16
S'\xfc\x1b_\x9b\xbc\xd8Q\xbf'
p1524
tp1525
Rp1526
sg1467
g12
(g16
S'\xd1\xfd\x86\xc4\x13\xfeQ\xbf'
p1527
tp1528
Rp1529
sg1471
g12
(g16
S'\xdcL\x95[\xb4yR\xbf'
p1530
tp1531
Rp1532
sg1475
g12
(g16
S'\x95\xdfOD\n\xcbR\xbf'
p1533
tp1534
Rp1535
sa(dp1536
g1459
F0.0
sg1463
F0.0
sg1467
F0.0
sg1471
F0.0
sg1475
F0.0
saa(lp1537
I4
aS'X4'
p1538
aI5
a(dp1539
g1459
g12
(g16
S')\x9eL?8\x03U\xbf'
p1540
tp1541
Rp1542
sg1463
g12
(g16
S'1}\xc0\xd2\xa5\rT\xbf'
p1543
tp1544
Rp1545
sg1467
g12
(g16
S'g\xd2\x83\xfe\xe63T\xbf'
p1546
tp1547
Rp1548
sg1471
g12
(g16
S"\xadY'5\x94\xbeT\xbf"
p1549
tp1550
Rp1551
sg1475
g12
(g16
S'\xed\x96\xab|\xe3\x0fU\xbf'
p1552
tp1553
Rp1554
sa(dp1555
g1459
F0.0
sg1463
F0.0
sg1467
F0.0
sg1471
F0.0
sg1475
F0.0
saa(lp1556
I4
aS'X4'
p1557
aI6
a(dp1558
g1459
g12
(g16
S'k\xfc\xe7r4\xb2W\xbf'
p1559
tp1560
Rp1561
sg1463
g12
(g16
S'o\x9b\xdf]\xde\xadV\xbf'
p1562
tp1563
Rp1564
sg1467
g12
(g16
S'\x9d\x1d]\xa6\x83\xcfV\xbf'
p1565
tp1566
Rp1567
sg1471
g12
(g16
S'\xecK\xf1d>oW\xbf'
p1568
tp1569
Rp1570
sg1475
g12
(g16
S'g\x01\xb1\x9f\xab\xb0W\xbf'
p1571
tp1572
Rp1573
sa(dp1574
g1459
F0.0
sg1463
F0.0
sg1467
F0.0
sg1471
F0.0
sg1475
F0.0
saa(lp1575
I4
aS'X4'
p1576
aI7
a(dp1577
g1459
g12
(g16
S'\x08dk\xd3\xc0\x95Z\xbf'
p1578
tp1579
Rp1580
sg1463
g12
(g16
S'\xe8-\x17K\xea\x8fY\xbf'
p1581
tp1582
Rp1583
sg1467
g12
(g16
S'8\x11\\\xd1\x02\xa2Y\xbf'
p1584
tp1585
Rp1586
sg1471
g12
(g16
S' \x7f@\xa42_Z\xbf'
p1587
tp1588
Rp1589
sg1475
g12
(g16
S'%\xecPX\xb9rZ\xbf'
p1590
tp1591
Rp1592
sa(dp1593
g1459
F0.0
sg1463
F0.0
sg1467
F0.0
sg1471
F0.0
sg1475
F0.0
saa(lp1594
I4
aS'X4'
p1595
aI8
a(dp1596
g1459
g12
(g16
S'a\xd3{\x01W\x1b]\xbf'
p1597
tp1598
Rp1599
sg1463
g12
(g16
S'\xe1[\xb2\xe9!+\\\xbf'
p1600
tp1601
Rp1602
sg1467
g12
(g16
S'\x96\xecQ\x14\x87\x1e\\\xbf'
p1603
tp1604
Rp1605
sg1471
g12
(g16
S'\xb0\x16o\xe6\x9e\x00]\xbf'
p1606
tp1607
Rp1608
sg1475
g12
(g16
S'i\xd5?\x1b\xc6\xbe\\\xbf'
p1609
tp1610
Rp1611
sa(dp1612
g1459
F0.0
sg1463
F0.0
sg1467
F0.0
sg1471
F0.0
sg1475
F0.0
saa(lp1613
I4
aS'X4'
p1614
aI9
a(dp1615
g1459
g12
(g16
S'\x87/\xff\xaa\xd7-^\xbf'
p1616
tp1617
Rp1618
sg1463
g12
(g16
S'\xdd!\x86 Nn]\xbf'
p1619
tp1620
Rp1621
sg1467
g12
(g16
S'\xfa\xbaP\xc3D7]\xbf'
p1622
tp1623
Rp1624
sg1471
g12
(g16
S'\xc16\x1fr\x13<^\xbf'
p1625
tp1626
Rp1627
sg1475
g12
(g16
S'\xf6\x1d\x90\x803\x89]\xbf'
p1628
tp1629
Rp1630
sa(dp1631
g1459
F0.0
sg1463
F0.0
sg1467
F0.0
sg1471
F0.0
sg1475
F0.0
saa(lp1632
I4
aS'X4'
p1633
aI10
a(dp1634
g1459
g12
(g16
S'\xcf}*\xdb\xa6b\\\xbf'
p1635
tp1636
Rp1637
sg1463
g12
(g16
S'\xcb\xef\xd3\t\x87\xe5[\xbf'
p1638
tp1639
Rp1640
sg1467
g12
(g16
S'\x96N\xdd\xcf\x81\x88[\xbf'
p1641
tp1642
Rp1643
sg1471
g12
(g16
S'+\xaf\r\xd6\xc4\x98\\\xbf'
p1644
tp1645
Rp1646
sg1475
g12
(g16
S'S\x9aWQ\xcc\x85[\xbf'
p1647
tp1648
Rp1649
sa(dp1650
g1459
F0.0
sg1463
F0.0
sg1467
F0.0
sg1471
F0.0
sg1475
F0.0
saa(lp1651
I4
aS'X4'
p1652
aI11
a(dp1653
g1459
g12
(g16
S'3E7z\xb6\x8eV\xbf'
p1654
tp1655
Rp1656
sg1463
g12
(g16
S'<nKj\xacPV\xbf'
p1657
tp1658
Rp1659
sg1467
g12
(g16
S'\xb0\t2\x046\xeaU\xbf'
p1660
tp1661
Rp1662
sg1471
g12
(g16
S')\xfaK\xcb\x9e\xd5V\xbf'
p1663
tp1664
Rp1665
sg1475
g12
(g16
S'm\xd6\xfe\xea\x87\xb2U\xbf'
p1666
tp1667
Rp1668
sa(dp1669
g1459
F0.0
sg1463
F0.0
sg1467
F0.0
sg1471
F0.0
sg1475
F0.0
saa(lp1670
I4
aS'X4'
p1671
aI12
a(dp1672
g1459
g12
(g16
S'\xc78\xf1\x93\x9e4I\xbf'
p1673
tp1674
Rp1675
sg1463
g12
(g16
S'\x8bt\x1f\x81@\x0bI\xbf'
p1676
tp1677
Rp1678
sg1467
g12
(g16
S'+\x0e\xc0\xd7:\x83H\xbf'
p1679
tp1680
Rp1681
sg1471
g12
(g16
S'F\xc1\xa9e\xd0\x98I\xbf'
p1682
tp1683
Rp1684
sg1475
g12
(g16
S'~\x0b\xfd\xebb\x1dH\xbf'
p1685
tp1686
Rp1687
sa(dp1688
g1459
F0.0
sg1463
F0.0
sg1467
F0.0
sg1471
F0.0
sg1475
F0.0
saa(lp1689
I4
aS'X4'
p1690
aI13
a(dp1691
g1459
g12
(g16
S'\x00\x00\x00\x00\x00\x00\x00\x00'
p1692
tp1693
Rp1694
sg1463
g12
(g16
S'\x00\x00\x00\x00\x00\x00\x00\x00'
p1695
tp1696
Rp1697
sg1467
g12
(g16
S'\x00\x00\x00\x00\x00\x00\x00\x00'
p1698
tp1699
Rp1700
sg1471
g12
(g16
S'\x00\x00\x00\x00\x00\x00\x00\x00'
p1701
tp1702
Rp1703
sg1475
g12
(g16
S'\x00\x00\x00\x00\x00\x00\x00\x00'
p1704
tp1705
Rp1706
sa(dp1707
g1459
F0.0
sg1463
F0.0
sg1467
F0.0
sg1471
F0.0
sg1475
F0.0
saa(lp1708
I4
aS'X4'
p1709
aI14
a(dp1710
g1459
g12
(g16
S'~`4\n\xff3I?'
p1711
tp1712
Rp1713
sg1463
g12
(g16
S'\x15\x14\x8e\xe6\x97\nI?'
p1714
tp1715
Rp1716
sg1467
g12
(g16
S'D\xca(\xfa\xb2\x82H?'
p1717
tp1718
Rp1719
sg1471
g12
(g16
S'4\xfe\xd8\x11+\x98I?'
p1720
tp1721
Rp1722
sg1475
g12
(g16
S'\xb8\xf1\x1bh\xe0\x1cH?'
p1723
tp1724
Rp1725
sa(dp1726
g1459
F0.0
sg1463
F0.0
sg1467
F0.0
sg1471
F0.0
sg1475
F0.0
saa(lp1727
I4
aS'X4'
p1728
aI15
a(dp1729
g1459
g12
(g16
S'>+#\x15\x85\x8dV?'
p1730
tp1731
Rp1732
sg1463
g12
(g16
S'\x1f\xd9b\xee\x85OV?'
p1733
tp1734
Rp1735
sg1467
g12
(g16
S'#:dh)\xe9U?'
p1736
tp1737
Rp1738
sg1471
g12
(g16
S'D\xe1\xc5\x1af\xd4V?'
p1739
tp1740
Rp1741
sg1475
g12
(g16
S'\xe6\x17\xdd\xb2\x8f\xb1U?'
p1742
tp1743
Rp1744
sa(dp1745
g1459
F0.0
sg1463
F0.0
sg1467
F0.0
sg1471
F0.0
sg1475
F0.0
saa(lp1746
I4
aS'X4'
p1747
aI16
a(dp1748
g1459
g12
(g16
S'\xacl\x90F\x0f`\\?'
p1749
tp1750
Rp1751
sg1463
g12
(g16
S'\xbb0\x9d\x94&\xe3[?'
p1752
tp1753
Rp1754
sg1467
g12
(g16
S'\x8a\x84\xae\x1e.\x86[?'
p1755
tp1756
Rp1757
sg1471
g12
(g16
S'4s\xf7\xa4\x13\x96\\?'
p1758
tp1759
Rp1760
sg1475
g12
(g16
S'\xafs\x05\xc8\xa6\x83[?'
p1761
tp1762
Rp1763
sa(dp1764
g1459
F0.0
sg1463
F0.0
sg1467
F0.0
sg1471
F0.0
sg1475
F0.0
saa(lp1765
I4
aS'X4'
p1766
aI17
a(dp1767
g1459
g12
(g16
S'\xa0g<$\x96*^?'
p1768
tp1769
Rp1770
sg1463
g12
(g16
S'\xfa\xf1\xe6\xab^k]?'
p1771
tp1772
Rp1773
sg1467
g12
(g16
S'LJ\xf7\x15g4]?'
p1774
tp1775
Rp1776
sg1471
g12
(g16
S'X\xeb-@\xab8^?'
p1777
tp1778
Rp1779
sg1475
g12
(g16
S'\x9e\xe5\x96\xce\x8b\x86]?'
p1780
tp1781
Rp1782
sa(dp1783
g1459
F0.0
sg1463
F0.0
sg1467
F0.0
sg1471
F0.0
sg1475
F0.0
saa(lp1784
I4
aS'X4'
p1785
aI18
a(dp1786
g1459
g12
(g16
S'\x88\x8d(\x80\xca\x17]?'
p1787
tp1788
Rp1789
sg1463
g12
(g16
S"<\xd5\xd3$\xfb'\\?"
p1790
tp1791
Rp1792
sg1467
g12
(g16
S'\xbf\x92\x1bUk\x1b\\?'
p1793
tp1794
Rp1795
sg1471
g12
(g16
S'\xfb:\x02\x92\xe2\xfc\\?'
p1796
tp1797
Rp1798
sg1475
g12
(g16
S'o\xc1?\xaa\xec\xbb\\?'
p1799
tp1800
Rp1801
sa(dp1802
g1459
F0.0
sg1463
F0.0
sg1467
F0.0
sg1471
F0.0
sg1475
F0.0
saa(lp1803
I4
aS'X4'
p1804
aI19
a(dp1805
g1459
g12
(g16
S'\xe1\xab\xf9\xfa(\x92Z?'
p1806
tp1807
Rp1808
sg1463
g12
(g16
S'gGb\x98\xc9\x8cY?'
p1809
tp1810
Rp1811
sg1467
g12
(g16
S'g\xce\xd7\x00\xef\x9eY?'
p1812
tp1813
Rp1814
sg1471
g12
(g16
S'NH\x85\x80r[Z?'
p1815
tp1816
Rp1817
sg1475
g12
(g16
S'\xd5e\xc7\x14\xe7oZ?'
p1818
tp1819
Rp1820
sa(dp1821
g1459
F0.0
sg1463
F0.0
sg1467
F0.0
sg1471
F0.0
sg1475
F0.0
saa(lp1822
I4
aS'X4'
p1823
aI20
a(dp1824
g1459
g12
(g16
S'\xe9\xb8\xa7\xf6\xbb\xaeW?'
p1825
tp1826
Rp1827
sg1463
g12
(g16
S'\xa8\xd7\xf68\xd4\xaaV?'
p1828
tp1829
Rp1830
sg1467
g12
(g16
S'oo\x13\x16\x91\xccV?'
p1831
tp1832
Rp1833
sg1471
g12
(g16
S'\xdd\xbd\x95\xb9\x9ckW?'
p1834
tp1835
Rp1836
sg1475
g12
(g16
S'k\xd6\xf1\xf4\xf4\xadW?'
p1837
tp1838
Rp1839
sa(dp1840
g1459
F0.0
sg1463
F0.0
sg1467
F0.0
sg1471
F0.0
sg1475
F0.0
saa(lp1841
I4
aS'X4'
p1842
aI21
a(dp1843
g1459
g12
(g16
S'b\x89e\xce\xca\xffT?'
p1844
tp1845
Rp1846
sg1463
g12
(g16
S'\xbd \xcf\xff\xb2\nT?'
p1847
tp1848
Rp1849
sg1467
g12
(g16
S'\x0c\\t\xe1\x011T?'
p1850
tp1851
Rp1852
sg1471
g12
(g16
S'\x9cROJ\x0f\xbbT?'
p1853
tp1854
Rp1855
sg1475
g12
(g16
S'\xa0\xac\xa0\xbc5\rU?'
p1856
tp1857
Rp1858
sa(dp1859
g1459
F0.0
sg1463
F0.0
sg1467
F0.0
sg1471
F0.0
sg1475
F0.0
saa(lp1860
I4
aS'X4'
p1861
aI22
a(dp1862
g1459
g12
(g16
S'\xacQW\x0e:\xb7R?'
p1863
tp1864
Rp1865
sg1463
g12
(g16
S'\xfa\x8a\xf2\xc1\x9f\xd5Q?'
p1866
tp1867
Rp1868
sg1467
g12
(g16
S'\x12\xe9\xad\xba\xff\xfaQ?'
p1869
tp1870
Rp1871
sg1471
g12
(g16
S'\xf8\xcePt\x05vR?'
p1872
tp1873
Rp1874
sg1475
g12
(g16
S'^\xe5\xb2L*\xc8R?'
p1875
tp1876
Rp1877
sa(dp1878
g1459
F0.0
sg1463
F0.0
sg1467
F0.0
sg1471
F0.0
sg1475
F0.0
saa(lp1879
I4
aS'X4'
p1880
aI23
a(dp1881
g1459
g12
(g16
S'3K<\x80\xb1\xd4P?'
p1882
tp1883
Rp1884
sg1463
g12
(g16
S'/\xef\x13\xd6a\x06P?'
p1885
tp1886
Rp1887
sg1467
g12
(g16
S'\r\x17O\xa1\xf9(P?'
p1888
tp1889
Rp1890
sg1471
g12
(g16
S'\xec\xfe\x18\xc8\x8a\x98P?'
p1891
tp1892
Rp1893
sg1475
g12
(g16
S'\xdc\x9fE\x83\xcb\xe4P?'
p1894
tp1895
Rp1896
sa(dp1897
g1459
F0.0
sg1463
F0.0
sg1467
F0.0
sg1471
F0.0
sg1475
F0.0
saa(lp1898
I4
aS'X4'
p1899
aI24
a(dp1900
g1459
g12
(g16
S'LF5c\x1a\x8fN?'
p1901
tp1902
Rp1903
sg1463
g12
(g16
S'\xa4\xf5\xd8h\x00\x15M?'
p1904
tp1905
Rp1906
sg1467
g12
(g16
S'7\xa3\xf9\xf9\x1fTM?'
p1907
tp1908
Rp1909
sg1471
g12
(g16
S'\xa8\x8f\xf7\xfb\xd5 N?'
p1910
tp1911
Rp1912
sg1475
g12
(g16
S'`\x8b\x8dnd\xabN?'
p1913
tp1914
Rp1915
sa(dp1916
g1459
F0.0
sg1463
F0.0
sg1467
F0.0
sg1471
F0.0
sg1475
F0.0
saa(lp1917
I4
aS'X4'
p1918
aI25
a(dp1919
g1459
g12
(g16
S'\xee\xa2hj\xa9\xf9K?'
p1920
tp1921
Rp1922
sg1463
g12
(g16
S'=\x8d\x8a\xeco\x9dJ?'
p1923
tp1924
Rp1925
sg1467
g12
(g16
S'\x81\xa4Nn\x1f\xd7J?'
p1926
tp1927
Rp1928
sg1471
g12
(g16
S'\x83\xf6hDA\x94K?'
p1929
tp1930
Rp1931
sg1475
g12
(g16
S'a\xab\x88O5\x12L?'
p1932
tp1933
Rp1934
sa(dp1935
g1459
F0.0
sg1463
F0.0
sg1467
F0.0
sg1471
F0.0
sg1475
F0.0
saasS'Scan_5'
p1936
(lp1937
(lp1938
I5
aS'X5'
p1939
aI1
a(dp1940
S'281'
p1941
g12
(g16
S'\x8b\xd7\x91^\xcf\xb0R\xbf'
p1942
tp1943
Rp1944
sS'1783'
p1945
g12
(g16
S'\x9a\x1b\\\xbf.\xd6Q\xbf'
p1946
tp1947
Rp1948
sS'872'
p1949
g12
(g16
S'}\x0f&Gt\xecQ\xbf'
p1950
tp1951
Rp1952
sS'2063'
p1953
g12
(g16
S'i\xda\x95\xda\x10tR\xbf'
p1954
tp1955
Rp1956
sS'41'
p1957
g12
(g16
S'3#\xa4]\xc8\xc2R\xbf'
p1958
tp1959
Rp1960
sa(dp1961
g1941
F0.0
sg1945
F0.0
sg1949
F0.0
sg1953
F0.0
sg1957
F0.0
saa(lp1962
I5
aS'X5'
p1963
aI2
a(dp1964
g1941
g12
(g16
S'M\xa9\x01\xe4\x97\xf9T\xbf'
p1965
tp1966
Rp1967
sg1945
g12
(g16
S'\x02:\xaf\xb6X\nT\xbf'
p1968
tp1969
Rp1970
sg1949
g12
(g16
S'\x98\x06\xea\x8a\xd8 T\xbf'
p1971
tp1972
Rp1973
sg1953
g12
(g16
S'-f\xe8\x7f\xc5\xb9T\xbf'
p1974
tp1975
Rp1976
sg1957
g12
(g16
S'\x18\xb8c<b\tU\xbf'
p1977
tp1978
Rp1979
sa(dp1980
g1941
F0.0
sg1945
F0.0
sg1949
F0.0
sg1953
F0.0
sg1957
F0.0
saa(lp1981
I5
aS'X5'
p1982
aI3
a(dp1983
g1941
g12
(g16
S'\xf1IM\xd8W\xa9W\xbf'
p1984
tp1985
Rp1986
sg1945
g12
(g16
S'\xc8\xe6\x15N\x8b\xa4V\xbf'
p1987
tp1988
Rp1989
sg1949
g12
(g16
S'\x8d\x9f8:\xdf\xbcV\xbf'
p1990
tp1991
Rp1992
sg1953
g12
(g16
S'\xc3";]$jW\xbf'
p1993
tp1994
Rp1995
sg1957
g12
(g16
S"'\x8f\xe4\xa3\xef\xadW\xbf"
p1996
tp1997
Rp1998
sa(dp1999
g1941
F0.0
sg1945
F0.0
sg1949
F0.0
sg1953
F0.0
sg1957
F0.0
saa(lp2000
I5
aS'X5'
p2001
aI4
a(dp2002
g1941
g12
(g16
S'%\x93\xc4m\x82\x8fZ\xbf'
p2003
tp2004
Rp2005
sg1945
g12
(g16
S'\x8d4\xd3\xf5WwY\xbf'
p2006
tp2007
Rp2008
sg1949
g12
(g16
S'\xc9b\x03\xa7e\x95Y\xbf'
p2009
tp2010
Rp2011
sg1953
g12
(g16
S'k\xd7\xab\x0cfXZ\xbf'
p2012
tp2013
Rp2014
sg1957
g12
(g16
S'\xcb\x17\x9b\x13VxZ\xbf'
p2015
tp2016
Rp2017
sa(dp2018
g1941
F0.0
sg1945
F0.0
sg1949
F0.0
sg1953
F0.0
sg1957
F0.0
saa(lp2019
I5
aS'X5'
p2020
aI5
a(dp2021
g1941
g12
(g16
S'\xe6\x94n\xf9\n\x1b]\xbf'
p2022
tp2023
Rp2024
sg1945
g12
(g16
S'\xfb\xde\xe7\x91\\\xf7[\xbf'
p2025
tp2026
Rp2027
sg1949
g12
(g16
S'\xd1\x88\xad^\xe7 \\\xbf'
p2028
tp2029
Rp2030
sg1953
g12
(g16
S'\x05\x00\x8b\xbf\xa9\xf6\\\xbf'
p2031
tp2032
Rp2033
sg1957
g12
(g16
S'\x1f\x16LV\xb8\xd2\\\xbf'
p2034
tp2035
Rp2036
sa(dp2037
g1941
F0.0
sg1945
F0.0
sg1949
F0.0
sg1953
F0.0
sg1957
F0.0
saa(lp2038
I5
aS'X5'
p2039
aI6
a(dp2040
g1941
g12
(g16
S'\xb6\xde\x1a\xf3\xe66^\xbf'
p2041
tp2042
Rp2043
sg1945
g12
(g16
S'\xea\x82\xb8\xd6\x1f\x18]\xbf'
p2044
tp2045
Rp2046
sg1949
g12
(g16
S'\xa2\x92:\x8eVQ]\xbf'
p2047
tp2048
Rp2049
sg1953
g12
(g16
S'\x85\xb3\xd1\n\xb2.^\xbf'
p2050
tp2051
Rp2052
sg1957
g12
(g16
S'\xd3\xb2(\xae\xc1\xaf]\xbf'
p2053
tp2054
Rp2055
sa(dp2056
g1941
F0.0
sg1945
F0.0
sg1949
F0.0
sg1953
F0.0
sg1957
F0.0
saa(lp2057
I5
aS'X5'
p2058
aI7
a(dp2059
g1941
g12
(g16
S'F\t\xa5|\xees\\\xbf'
p2060
tp2061
Rp2062
sg1945
g12
(g16
S'\xe6j\xdf!Ps[\xbf'
p2063
tp2064
Rp2065
sg1949
g12
(g16
S'qb\xa4%\xd4\xb8[\xbf'
p2066
tp2067
Rp2068
sg1953
g12
(g16
S'\xd1\x98\xd6<N\x88\\\xbf'
p2069
tp2070
Rp2071
sg1957
g12
(g16
S'\x1ekj\x82\x92\xba[\xbf'
p2072
tp2073
Rp2074
sa(dp2075
g1941
F0.0
sg1945
F0.0
sg1949
F0.0
sg1953
F0.0
sg1957
F0.0
saa(lp2076
I5
aS'X5'
p2077
aI8
a(dp2078
g1941
g12
(g16
S'\xe8]\n\xb6\xe9\xa1V\xbf'
p2079
tp2080
Rp2081
sg1945
g12
(g16
S'YT\x06\xba\x1a\xdeU\xbf'
p2082
tp2083
Rp2084
sg1949
g12
(g16
S'L}\xf2?\xe7 V\xbf'
p2085
tp2086
Rp2087
sg1953
g12
(g16
S'\x85\x10\xba\xac\x11\xc5V\xbf'
p2088
tp2089
Rp2090
sg1957
g12
(g16
S':H%D\xf1\xe6U\xbf'
p2091
tp2092
Rp2093
sa(dp2094
g1941
F0.0
sg1945
F0.0
sg1949
F0.0
sg1953
F0.0
sg1957
F0.0
saa(lp2095
I5
aS'X5'
p2096
aI9
a(dp2097
g1941
g12
(g16
S'+@\xcc{\xf4MI\xbf'
p2098
tp2099
Rp2100
sg1945
g12
(g16
S'b\x04%\xa7\xedxH\xbf'
p2101
tp2102
Rp2103
sg1949
g12
(g16
S'{oE\xe9\x8e\xccH\xbf'
p2104
tp2105
Rp2106
sg1953
g12
(g16
S'\x87\x1b8\x86_\x83I\xbf'
p2107
tp2108
Rp2109
sg1957
g12
(g16
S'\xd7?\xc3\x86h_H\xbf'
p2110
tp2111
Rp2112
sa(dp2113
g1941
F0.0
sg1945
F0.0
sg1949
F0.0
sg1953
F0.0
sg1957
F0.0
saa(lp2114
I5
aS'X5'
p2115
aI10
a(dp2116
g1941
g12
(g16
S'\x00\x00\x00\x00\x00\x00\x00\x00'
p2117
tp2118
Rp2119
sg1945
g12
(g16
S'\x00\x00\x00\x00\x00\x00\x00\x00'
p2120
tp2121
Rp2122
sg1949
g12
(g16
S'\x00\x00\x00\x00\x00\x00\x00\x00'
p2123
tp2124
Rp2125
sg1953
g12
(g16
S'\x00\x00\x00\x00\x00\x00\x00\x00'
p2126
tp2127
Rp2128
sg1957
g12
(g16
S'\x00\x00\x00\x00\x00\x00\x00\x00'
p2129
tp2130
Rp2131
sa(dp2132
g1941
F0.0
sg1945
F0.0
sg1949
F0.0
sg1953
F0.0
sg1957
F0.0
saa(lp2133
I5
aS'X5'
p2134
aI11
a(dp2135
g1941
g12
(g16
S'\xf1M\x84%\x0cNI?'
p2136
tp2137
Rp2138
sg1945
g12
(g16
S'g\x9a\xff\xc3\x12yH?'
p2139
tp2140
Rp2141
sg1949
g12
(g16
S'R\xfe\xda\xf4\xbb\xccH?'
p2142
tp2143
Rp2144
sg1953
g12
(g16
S'\xc8\x96\r\xe7\x85\x83I?'
p2145
tp2146
Rp2147
sg1957
g12
(g16
S'\xcd;O\x1c\x9e_H?'
p2148
tp2149
Rp2150
sa(dp2151
g1941
F0.0
sg1945
F0.0
sg1949
F0.0
sg1953
F0.0
sg1957
F0.0
saa(lp2152
I5
aS'X5'
p2153
aI12
a(dp2154
g1941
g12
(g16
S'B\xae\xa1D\xd4\xa0V?'
p2155
tp2156
Rp2157
sg1945
g12
(g16
S'F\xb9\x167$\xddU?'
p2158
tp2159
Rp2160
sg1949
g12
(g16
S'}\x85\xe1\xb2\xf6\x1fV?'
p2161
tp2162
Rp2163
sg1953
g12
(g16
S'3\x93A\x1a\xfe\xc3V?'
p2164
tp2165
Rp2166
sg1957
g12
(g16
S'x`\x90\xe0\x0c\xe6U?'
p2167
tp2168
Rp2169
sa(dp2170
g1941
F0.0
sg1945
F0.0
sg1949
F0.0
sg1953
F0.0
sg1957
F0.0
saa(lp2171
I5
aS'X5'
p2172
aI13
a(dp2173
g1941
g12
(g16
S'_\xe3\x07jDq\\?'
p2174
tp2175
Rp2176
sg1945
g12
(g16
S'\xf2?\x1aR\xe7p[?'
p2177
tp2178
Rp2179
sg1949
g12
(g16
S'?q\x89\xeco\xb6[?'
p2180
tp2181
Rp2182
sg1953
g12
(g16
S'\x06\x11=\x91\x90\x85\\?'
p2183
tp2184
Rp2185
sg1957
g12
(g16
S'6\x0c\xb5\xd5O\xb8[?'
p2186
tp2187
Rp2188
sa(dp2189
g1941
F0.0
sg1945
F0.0
sg1949
F0.0
sg1953
F0.0
sg1957
F0.0
saa(lp2190
I5
aS'X5'
p2191
aI14
a(dp2192
g1941
g12
(g16
S'e\xe5\x1d\xf7$3^?'
p2193
tp2194
Rp2195
sg1945
g12
(g16
S'\x00\xdb3\xcc\xc7\x14]?'
p2196
tp2197
Rp2198
sg1949
g12
(g16
S'\x8b\x9e\x1aD\x1fN]?'
p2199
tp2200
Rp2201
sg1953
g12
(g16
S'\xc1\xab\x7f\xc3\xd5*^?'
p2202
tp2203
Rp2204
sg1957
g12
(g16
S'y_\x15+\xac\xac]?'
p2205
tp2206
Rp2207
sa(dp2208
g1941
F0.0
sg1945
F0.0
sg1949
F0.0
sg1953
F0.0
sg1957
F0.0
saa(lp2209
I5
aS'X5'
p2210
aI15
a(dp2211
g1941
g12
(g16
S'\x15\xea\xd7\x0fl\x16]?'
p2212
tp2213
Rp2214
sg1945
g12
(g16
S'\x02\xeb\xdf\xa3P\xf3[?'
p2215
tp2216
Rp2217
sg1949
g12
(g16
S'\x98Q\xc2\xd2\xf2\x1c\\?'
p2218
tp2219
Rp2220
sg1953
g12
(g16
S'\xe9\x04,M\xf6\xf1\\?'
p2221
tp2222
Rp2223
sg1957
g12
(g16
S't\x0f>\xc4\xde\xce\\?'
p2224
tp2225
Rp2226
sa(dp2227
g1941
F0.0
sg1945
F0.0
sg1949
F0.0
sg1953
F0.0
sg1957
F0.0
saa(lp2228
I5
aS'X5'
p2229
aI16
a(dp2230
g1941
g12
(g16
S'D%RW\x1b\x8bZ?'
p2231
tp2232
Rp2233
sg1945
g12
(g16
S'%3$\xbd\x82sY?'
p2234
tp2235
Rp2236
sg1949
g12
(g16
S'\x95\xaf\x13\xf2\xa7\x91Y?'
p2237
tp2238
Rp2239
sg1953
g12
(g16
S'3z]\xf0\xd6SZ?'
p2240
tp2241
Rp2242
sg1957
g12
(g16
S'\xd7K-:\xcftZ?'
p2243
tp2244
Rp2245
sa(dp2246
g1941
F0.0
sg1945
F0.0
sg1949
F0.0
sg1953
F0.0
sg1957
F0.0
saa(lp2247
I5
aS'X5'
p2248
aI17
a(dp2249
g1941
g12
(g16
S'\x04\xa6QJ]\xa4W?'
p2250
tp2251
Rp2252
sg1945
g12
(g16
S';\xba\xc1\x16E\xa0V?'
p2253
tp2254
Rp2255
sg1949
g12
(g16
S'9\xc3!\xe4\xb9\xb8V?'
p2256
tp2257
Rp2258
sg1953
g12
(g16
S'\xe7\xd6Z\xe9\xfcdW?'
p2259
tp2260
Rp2261
sg1957
g12
(g16
S'M\xaf\xe2,\xf5\xa9W?'
p2262
tp2263
Rp2264
sa(dp2265
g1941
F0.0
sg1945
F0.0
sg1949
F0.0
sg1953
F0.0
sg1957
F0.0
saa(lp2266
I5
aS'X5'
p2267
aI18
a(dp2268
g1941
g12
(g16
S'\xb9\x1f\xf7s\x1f\xf4T?'
p2269
tp2270
Rp2271
sg1945
g12
(g16
S'#j\x91u\xa2\x05T?'
p2272
tp2273
Rp2274
sg1949
g12
(g16
S'\xb8\xbc\x02\xcaG\x1cT?'
p2275
tp2276
Rp2277
sg1953
g12
(g16
S'x\xb7\xfc\x8c%\xb4T?'
p2278
tp2279
Rp2280
sg1957
g12
(g16
S'\x9e\xdc\xc1D\xe5\x04U?'
p2281
tp2282
Rp2283
sa(dp2284
g1941
F0.0
sg1945
F0.0
sg1949
F0.0
sg1953
F0.0
sg1957
F0.0
saa(lp2285
I5
aS'X5'
p2286
aI19
a(dp2287
g1941
g12
(g16
S's\x98\x8b\xe4A\xacR?'
p2288
tp2289
Rp2290
sg1945
g12
(g16
S'P\xd6#\tS\xd2Q?'
p2291
tp2292
Rp2293
sg1949
g12
(g16
S'a,\xc9Y\xb6\xe8Q?'
p2294
tp2295
Rp2296
sg1953
g12
(g16
S'\x08T\x8c\x92VoR?'
p2297
tp2298
Rp2299
sg1957
g12
(g16
S's\x15!\xfe(\xbfR?'
p2300
tp2301
Rp2302
sa(dp2303
g1941
F0.0
sg1945
F0.0
sg1949
F0.0
sg1953
F0.0
sg1957
F0.0
saasS'Scan_6'
p2304
(lp2305
(lp2306
I6
aS'Y6'
p2307
aI1
a(dp2308
S'281'
p2309
F0.0
sS'1783'
p2310
F0.0
sS'872'
p2311
F0.0
sS'2063'
p2312
F0.0
sS'41'
p2313
F0.0
sa(dp2314
g2309
g12
(g16
S'\x94\x93\xc2]\xd3\x02Q\xbf'
p2315
tp2316
Rp2317
sg2310
g12
(g16
S'\xb6m1xh\x1bP\xbf'
p2318
tp2319
Rp2320
sg2311
g12
(g16
S'/\xc1&\xee\xd6JP\xbf'
p2321
tp2322
Rp2323
sg2312
g12
(g16
S'!\xb3\x8b\xd83\xbfP\xbf'
p2324
tp2325
Rp2326
sg2313
g12
(g16
S'\xa8\xa3\xa7\xd6\xcd\x05Q\xbf'
p2327
tp2328
Rp2329
saa(lp2330
I6
aS'Y6'
p2331
aI2
a(dp2332
g2309
F0.0
sg2310
F0.0
sg2311
F0.0
sg2312
F0.0
sg2313
F0.0
sa(dp2333
g2309
g12
(g16
S'\xb6}\xdd\x98\x1f\x08S\xbf'
p2334
tp2335
Rp2336
sg2310
g12
(g16
S'L\xf4\x14bI\x04R\xbf'
p2337
tp2338
Rp2339
sg2311
g12
(g16
S'\x01\xab\x82\xf6i;R\xbf'
p2340
tp2341
Rp2342
sg2312
g12
(g16
S'\x19\x89\xd6\xed@\xbdR\xbf'
p2343
tp2344
Rp2345
sg2313
g12
(g16
S'\x85<E\xda\xac\x07S\xbf'
p2346
tp2347
Rp2348
saa(lp2349
I6
aS'Y6'
p2350
aI3
a(dp2351
g2309
F0.0
sg2310
F0.0
sg2311
F0.0
sg2312
F0.0
sg2313
F0.0
sa(dp2352
g2309
g12
(g16
S'/\xb3v\xe6\xdfxU\xbf'
p2353
tp2354
Rp2355
sg2310
g12
(g16
S'{\xf0\x8b^ XT\xbf'
p2356
tp2357
Rp2358
sg2311
g12
(g16
S'`\x93&\xcb\xa8\x96T\xbf'
p2359
tp2360
Rp2361
sg2312
g12
(g16
S'\x9bQ&\xc9s)U\xbf'
p2362
tp2363
Rp2364
sg2313
g12
(g16
S'\xa0\xf3,e7pU\xbf'
p2365
tp2366
Rp2367
saa(lp2368
I6
aS'Y6'
p2369
aI4
a(dp2370
g2309
F0.0
sg2310
F0.0
sg2311
F0.0
sg2312
F0.0
sg2313
F0.0
sa(dp2371
g2309
g12
(g16
S'\xe6(A\xa0\xef@X\xbf'
p2372
tp2373
Rp2374
sg2310
g12
(g16
S'wr\xb4n.\rW\xbf'
p2375
tp2376
Rp2377
sg2311
g12
(g16
S'\x98\x9b\x97|yNW\xbf'
p2378
tp2379
Rp2380
sg2312
g12
(g16
S'\x08\xa9`\xbfj\xf6W\xbf'
p2381
tp2382
Rp2383
sg2313
g12
(g16
S'7\xce\xc1\xf9\xa6&X\xbf'
p2384
tp2385
Rp2386
saa(lp2387
I6
aS'Y6'
p2388
aI5
a(dp2389
g2309
F0.0
sg2310
F0.0
sg2311
F0.0
sg2312
F0.0
sg2313
F0.0
sa(dp2390
g2309
g12
(g16
S'o\xbf\xd8VQ\xf6Z\xbf'
p2391
tp2392
Rp2393
sg2310
g12
(g16
S'v\xd1\xc5\xa5\x08\xcbY\xbf'
p2394
tp2395
Rp2396
sg2311
g12
(g16
S'\x92\x99!R1\x03Z\xbf'
p2397
tp2398
Rp2399
sg2312
g12
(g16
S'<\x0c\x91\xaan\xc3Z\xbf'
p2400
tp2401
Rp2402
sg2313
g12
(g16
S'!\x06\xe4X\xc3\xbcZ\xbf'
p2403
tp2404
Rp2405
saa(lp2406
I6
aS'Y6'
p2407
aI6
a(dp2408
g2309
F0.0
sg2310
F0.0
sg2311
F0.0
sg2312
F0.0
sg2313
F0.0
sa(dp2409
g2309
g12
(g16
S'\x17\xbaRz\x1f\x9b\\\xbf'
p2410
tp2411
Rp2412
sg2310
g12
(g16
S'\xb4-\xf8\xa8\x08\xa3[\xbf'
p2413
tp2414
Rp2415
sg2311
g12
(g16
S'\xa8\xdf\x86\x0c+\xc1[\xbf'
p2416
tp2417
Rp2418
sg2312
g12
(g16
S'\x12\xf37\x16t\x96\\\xbf'
p2419
tp2420
Rp2421
sg2313
g12
(g16
S'Jt\xa3<-7\\\xbf'
p2422
tp2423
Rp2424
saa(lp2425
I6
aS'Y6'
p2426
aI7
a(dp2427
g2309
F0.0
sg2310
F0.0
sg2311
F0.0
sg2312
F0.0
sg2313
F0.0
sa(dp2428
g2309
g12
(g16
S'\xf0\x8f\x17\x9f\r\xa3[\xbf'
p2429
tp2430
Rp2431
sg2310
g12
(g16
S'i\xc1\x8a<7\x03[\xbf'
p2432
tp2433
Rp2434
sg2311
g12
(g16
S'&y\x07/\xc0\xfcZ\xbf'
p2435
tp2436
Rp2437
sg2312
g12
(g16
S'\x83`\xcd(\xa4\xd5[\xbf'
p2438
tp2439
Rp2440
sg2313
g12
(g16
S'\xd5\xd1`0+\x1a[\xbf'
p2441
tp2442
Rp2443
saa(lp2444
I6
aS'Y6'
p2445
aI8
a(dp2446
g2309
F0.0
sg2310
F0.0
sg2311
F0.0
sg2312
F0.0
sg2313
F0.0
sa(dp2447
g2309
g12
(g16
S'\xc6\x07\xee\xc3\\\x81V\xbf'
p2448
tp2449
Rp2450
sg2310
g12
(g16
S'\xb6\xb55#\x7f<V\xbf'
p2451
tp2452
Rp2453
sg2311
g12
(g16
S'Z\xe3V\x11\x13\x1bV\xbf'
p2454
tp2455
Rp2456
sg2312
g12
(g16
S'\xcd\xc6\xda\xae)\xd4V\xbf'
p2457
tp2458
Rp2459
sg2313
g12
(g16
S'\xad6\xe4h\xec\xf4U\xbf'
p2460
tp2461
Rp2462
saa(lp2463
I6
aS'Y6'
p2464
aI9
a(dp2465
g2309
F0.0
sg2310
F0.0
sg2311
F0.0
sg2312
F0.0
sg2313
F0.0
sa(dp2466
g2309
g12
(g16
S'\x16\x15p\xb7W\x95I\xbf'
p2467
tp2468
Rp2469
sg2310
g12
(g16
S'\xf4\x89\xd6\xe8]xI\xbf'
p2470
tp2471
Rp2472
sg2311
g12
(g16
S'.\x14\xf4\xecX;I\xbf'
p2473
tp2474
Rp2475
sg2312
g12
(g16
S'9$\\*\x8b\x14J\xbf'
p2476
tp2477
Rp2478
sg2313
g12
(g16
S'\xa6\x1d\xe5\xb9a\xdfH\xbf'
p2479
tp2480
Rp2481
saa(lp2482
I6
aS'Y6'
p2483
aI10
a(dp2484
g2309
F0.0
sg2310
F0.0
sg2311
F0.0
sg2312
F0.0
sg2313
F0.0
sa(dp2485
g2309
g12
(g16
S'\x00\x00\x00\x00\x00\x00\x00\x00'
p2486
tp2487
Rp2488
sg2310
g12
(g16
S'\x00\x00\x00\x00\x00\x00\x00\x00'
p2489
tp2490
Rp2491
sg2311
g12
(g16
S'\x00\x00\x00\x00\x00\x00\x00\x00'
p2492
tp2493
Rp2494
sg2312
g12
(g16
S'\x00\x00\x00\x00\x00\x00\x00\x00'
p2495
tp2496
Rp2497
sg2313
g12
(g16
S'\x00\x00\x00\x00\x00\x00\x00\x00'
p2498
tp2499
Rp2500
saa(lp2501
I6
aS'Y6'
p2502
aI11
a(dp2503
g2309
F0.0
sg2310
F0.0
sg2311
F0.0
sg2312
F0.0
sg2313
F0.0
sa(dp2504
g2309
g12
(g16
S'\x83\x83\xb2R!\x94I?'
p2505
tp2506
Rp2507
sg2310
g12
(g16
S'\xea|\x988PwI?'
p2508
tp2509
Rp2510
sg2311
g12
(g16
S'\xc5\xc5\xa9\nJ:I?'
p2511
tp2512
Rp2513
sg2312
g12
(g16
S'\xdba\xdc\x82F\x13J?'
p2514
tp2515
Rp2516
sg2313
g12
(g16
S'\xf0\x03jj\\\xdeH?'
p2517
tp2518
Rp2519
saa(lp2520
I6
aS'Y6'
p2521
aI12
a(dp2522
g2309
F0.0
sg2310
F0.0
sg2311
F0.0
sg2312
F0.0
sg2313
F0.0
sa(dp2523
g2309
g12
(g16
S'F>\x9a\xca\x11\x80V?'
p2524
tp2525
Rp2526
sg2310
g12
(g16
S'\x9d\x80\xa6Ck;V?'
p2527
tp2528
Rp2529
sg2311
g12
(g16
S'b7X\xc0\x05\x1aV?'
p2530
tp2531
Rp2532
sg2312
g12
(g16
S'gm\xfe;\xd6\xd2V?'
p2533
tp2534
Rp2535
sg2313
g12
(g16
S'\xbdhh\x1d\xe3\xf3U?'
p2536
tp2537
Rp2538
saa(lp2539
I6
aS'Y6'
p2540
aI13
a(dp2541
g2309
F0.0
sg2310
F0.0
sg2311
F0.0
sg2312
F0.0
sg2313
F0.0
sa(dp2542
g2309
g12
(g16
S'\x8bJ\xb7\xfd\x1b\xa0[?'
p2543
tp2544
Rp2545
sg2310
g12
(g16
S'h\x8e\xbe\xf1\xa8\x00[?'
p2546
tp2547
Rp2548
sg2311
g12
(g16
S'\xb7T:\x038\xfaZ?'
p2549
tp2550
Rp2551
sg2312
g12
(g16
S'L\xe3\xd8@\xb2\xd2[?'
p2552
tp2553
Rp2554
sg2313
g12
(g16
S'\x87_O\x02\xa4\x17[?'
p2555
tp2556
Rp2557
saa(lp2558
I6
aS'Y6'
p2559
aI14
a(dp2560
g2309
F0.0
sg2310
F0.0
sg2311
F0.0
sg2312
F0.0
sg2313
F0.0
sa(dp2561
g2309
g12
(g16
S'\xd8\xcfXe\x12\x98\\?'
p2562
tp2563
Rp2564
sg2310
g12
(g16
S'-\xdf\x8c\tz\xa0[?'
p2565
tp2566
Rp2567
sg2311
g12
(g16
S'\xfa\xc7\x10\xdb\xa8\xbe[?'
p2568
tp2569
Rp2570
sg2312
g12
(g16
S'N1\x1a6c\x93\\?'
p2571
tp2572
Rp2573
sg2313
g12
(g16
S"\xc9'\x7f\xfc\xa94\\?"
p2574
tp2575
Rp2576
saa(lp2577
I6
aS'Y6'
p2578
aI15
a(dp2579
g2309
F0.0
sg2310
F0.0
sg2311
F0.0
sg2312
F0.0
sg2313
F0.0
sa(dp2580
g2309
g12
(g16
S'\x1bg\xd8\x16\xc8\xf1Z?'
p2581
tp2582
Rp2583
sg2310
g12
(g16
S'\xbb?\xd4\x8b)\xc7Y?'
p2584
tp2585
Rp2586
sg2311
g12
(g16
S'\xb0%\x00\xa7J\xffY?'
p2587
tp2588
Rp2589
sg2312
g12
(g16
S'y22R\xeb\xbeZ?'
p2590
tp2591
Rp2592
sg2313
g12
(g16
S'\x89\xed\x0cV\xe1\xb8Z?'
p2593
tp2594
Rp2595
saa(lp2596
I6
aS'Y6'
p2597
aI16
a(dp2598
g2309
F0.0
sg2310
F0.0
sg2311
F0.0
sg2312
F0.0
sg2313
F0.0
sa(dp2599
g2309
g12
(g16
S'\t\xee\xac\xd5M<X?'
p2600
tp2601
Rp2602
sg2310
g12
(g16
S'\x8a%\xf6:V\tW?'
p2603
tp2604
Rp2605
sg2311
g12
(g16
S'\x81\x9b[\xfc\x8bJW?'
p2606
tp2607
Rp2608
sg2312
g12
(g16
S'kkT\x98\xed\xf1W?'
p2609
tp2610
Rp2611
sg2313
g12
(g16
S'in\xdf\xfd\xbb"X?'
p2612
tp2613
Rp2614
saa(lp2615
I6
aS'Y6'
p2616
aI17
a(dp2617
g2309
F0.0
sg2310
F0.0
sg2311
F0.0
sg2312
F0.0
sg2313
F0.0
sa(dp2618
g2309
g12
(g16
S'm\x11F4;tU?'
p2619
tp2620
Rp2621
sg2310
g12
(g16
S'\xfc\xb9b\x7f;TT?'
p2622
tp2623
Rp2624
sg2311
g12
(g16
S'\xe1\xe5,\x1c\xc2\x92T?'
p2625
tp2626
Rp2627
sg2312
g12
(g16
S'\xfcP\xf3|\xf3$U?'
p2628
tp2629
Rp2630
sg2313
g12
(g16
S'c.\xc4/8lU?'
p2631
tp2632
Rp2633
saa(lp2634
I6
aS'Y6'
p2635
aI18
a(dp2636
g2309
F0.0
sg2310
F0.0
sg2311
F0.0
sg2312
F0.0
sg2313
F0.0
sa(dp2637
g2309
g12
(g16
S'\xec\xe0A\x16\xf2\x03S?'
p2638
tp2639
Rp2640
sg2310
g12
(g16
S'\xe4\x15X{\xc7\x00R?'
p2641
tp2642
Rp2643
sg2311
g12
(g16
S'\xaa\x14c\xd9\xe87R?'
p2644
tp2645
Rp2646
sg2312
g12
(g16
S'1SQ\x81$\xb9R?'
p2647
tp2648
Rp2649
sg2313
g12
(g16
S'\x16\xc8;=\x1b\x04S?'
p2650
tp2651
Rp2652
saa(lp2653
I6
aS'Y6'
p2654
aI19
a(dp2655
g2309
F0.0
sg2310
F0.0
sg2311
F0.0
sg2312
F0.0
sg2313
F0.0
sa(dp2656
g2309
g12
(g16
S'\x10)\xe2\xfeZ\xfeP?'
p2657
tp2658
Rp2659
sg2310
g12
(g16
S'\xfb\xb0\x8b\xa2\x96\x17P?'
p2660
tp2661
Rp2662
sg2311
g12
(g16
S'G\x9f\xbe@\x06GP?'
p2663
tp2664
Rp2665
sg2312
g12
(g16
S'\x94\xb3\x18\xb3\xc5\xbaP?'
p2666
tp2667
Rp2668
sg2313
g12
(g16
S'iT\xd2\xdf\xe3\x01Q?'
p2669
tp2670
Rp2671
saasS'Scan_7'
p2672
(lp2673
(lp2674
I7
aS'X7'
p2675
aI1
a(dp2676
S'281'
p2677
g12
(g16
S'\x13\xb2\x0b\xb2\xad\xbaR?'
p2678
tp2679
Rp2680
sS'1783'
p2681
g12
(g16
S'\xcbueb-\xd2Q?'
p2682
tp2683
Rp2684
sS'872'
p2685
g12
(g16
S'\xa4uf\xd10\xf4Q?'
p2686
tp2687
Rp2688
sS'2063'
p2689
g12
(g16
S'\xd9\xef\xc65BxR?'
p2690
tp2691
Rp2692
sS'41'
p2693
g12
(g16
S'@*\xf8\xe4\x8c\xd2R?'
p2694
tp2695
Rp2696
sa(dp2697
g2677
F0.0
sg2681
F0.0
sg2685
F0.0
sg2689
F0.0
sg2693
F0.0
saa(lp2698
I7
aS'X7'
p2699
aI2
a(dp2700
g2677
g12
(g16
S'\x13\x89\x9d\x0c\x86\x07U?'
p2701
tp2702
Rp2703
sg2681
g12
(g16
S'+\xb53\x93\xc5\x06T?'
p2704
tp2705
Rp2706
sg2685
g12
(g16
S'#\xe0\xd6Q\x1d*T?'
p2707
tp2708
Rp2709
sg2689
g12
(g16
S'u\x1558Z\xc1T?'
p2710
tp2711
Rp2712
sg2693
g12
(g16
S'\x93\x92D^z\x1cU?'
p2713
tp2714
Rp2715
sa(dp2716
g2677
F0.0
sg2681
F0.0
sg2685
F0.0
sg2689
F0.0
sg2693
F0.0
saa(lp2717
I7
aS'X7'
p2718
aI3
a(dp2719
g2677
g12
(g16
S'\xad\x9f\xa7\xe2\xcd\xb8W?'
p2720
tp2721
Rp2722
sg2681
g12
(g16
S'^\x99d\xba_\xa0V?'
p2723
tp2724
Rp2725
sg2685
g12
(g16
S'Vs@\xb5e\xc2V?'
p2726
tp2727
Rp2728
sg2689
g12
(g16
S'P\xc9E\xab\xfdsW?'
p2729
tp2730
Rp2731
sg2693
g12
(g16
S'\x93EF\xc6/\xbfW?'
p2732
tp2733
Rp2734
sa(dp2735
g2677
F0.0
sg2681
F0.0
sg2685
F0.0
sg2689
F0.0
sg2693
F0.0
saa(lp2736
I7
aS'X7'
p2737
aI4
a(dp2738
g2677
g12
(g16
S'8c\xdd\x82C\x99Z?'
p2739
tp2740
Rp2741
sg2681
g12
(g16
S'U\xfd\x9b\xec\xceoY?'
p2742
tp2743
Rp2744
sg2685
g12
(g16
S'ZVL\x8de\x8bY?'
p2745
tp2746
Rp2747
sg2689
g12
(g16
S'\xd5T\xed\x8d>`Z?'
p2748
tp2749
Rp2750
sg2693
g12
(g16
S'H\x805\xc0Y|Z?'
p2751
tp2752
Rp2753
sa(dp2754
g2677
F0.0
sg2681
F0.0
sg2685
F0.0
sg2689
F0.0
sg2693
F0.0
saa(lp2755
I7
aS'X7'
p2756
aI5
a(dp2757
g2677
g12
(g16
S'\xcf\x9d\xf7\xa0\x88\x11]?'
p2758
tp2759
Rp2760
sg2681
g12
(g16
S'4.\x02\xfbj\xe6[?'
p2761
tp2762
Rp2763
sg2685
g12
(g16
S'\x13\x89\xd4G\x94\xf4[?'
p2764
tp2765
Rp2766
sg2689
g12
(g16
S'\xc5\x0ew\xfb\xf3\xf2\\?'
p2767
tp2768
Rp2769
sg2693
g12
(g16
S'"\xdcO\x14\xee\xb7\\?'
p2770
tp2771
Rp2772
sa(dp2773
g2677
F0.0
sg2681
F0.0
sg2685
F0.0
sg2689
F0.0
sg2693
F0.0
saa(lp2774
I7
aS'X7'
p2775
aI6
a(dp2776
g2677
g12
(g16
S'\xf2\xc5\xae{\x92\r^?'
p2777
tp2778
Rp2779
sg2681
g12
(g16
S'\xdb*H\xefP\xf8\\?'
p2780
tp2781
Rp2782
sg2685
g12
(g16
S'\x13M\x07\x98a\xf3\\?'
p2783
tp2784
Rp2785
sg2689
g12
(g16
S'\xd5\x91B\xfe\xa1\x15^?'
p2786
tp2787
Rp2788
sg2693
g12
(g16
S'\xc9\xd5\x92\xde\x99h]?'
p2789
tp2790
Rp2791
sa(dp2792
g2677
F0.0
sg2681
F0.0
sg2685
F0.0
sg2689
F0.0
sg2693
F0.0
saa(lp2793
I7
aS'X7'
p2794
aI7
a(dp2795
g2677
g12
(g16
S'!|\xdb\xe7\xa2,\\?'
p2796
tp2797
Rp2798
sg2681
g12
(g16
S'\x0e\x9c$\xd2\tG[?'
p2799
tp2800
Rp2801
sg2685
g12
(g16
S'm\xb9\xf7\xcf\xe0/[?'
p2802
tp2803
Rp2804
sg2689
g12
(g16
S'i\x9f\x0bDAZ\\?'
p2805
tp2806
Rp2807
sg2693
g12
(g16
S'\x92\xc7\xd327M[?'
p2808
tp2809
Rp2810
sa(dp2811
g2677
F0.0
sg2681
F0.0
sg2685
F0.0
sg2689
F0.0
sg2693
F0.0
saa(lp2812
I7
aS'X7'
p2813
aI8
a(dp2814
g2677
g12
(g16
S'\xc0S\x98\x06\xe7RV?'
p2815
tp2816
Rp2817
sg2681
g12
(g16
S'\tg1\x0cF\xb1U?'
p2818
tp2819
Rp2820
sg2685
g12
(g16
S'y\xc5\xa1\x84\x82\x92U?'
p2821
tp2822
Rp2823
sg2689
g12
(g16
S'\xf6\xf9!c\xe5\x90V?'
p2824
tp2825
Rp2826
sg2693
g12
(g16
S'\x96f\xebI\xb1sU?'
p2827
tp2828
Rp2829
sa(dp2830
g2677
F0.0
sg2681
F0.0
sg2685
F0.0
sg2689
F0.0
sg2693
F0.0
saa(lp2831
I7
aS'X7'
p2832
aI9
a(dp2833
g2677
g12
(g16
S'\xb2\x14a\x0b\x7f\xe4H?'
p2834
tp2835
Rp2836
sg2681
g12
(g16
S'\xb4\xc4\xc9\x05`?H?'
p2837
tp2838
Rp2839
sg2685
g12
(g16
S'\xc45\xbb\xfa\xd7\x13H?'
p2840
tp2841
Rp2842
sg2689
g12
(g16
S'\x9em#\x1f\xeb<I?'
p2843
tp2844
Rp2845
sg2693
g12
(g16
S'>\xa1\xf9\x00v\xc9G?'
p2846
tp2847
Rp2848
sa(dp2849
g2677
F0.0
sg2681
F0.0
sg2685
F0.0
sg2689
F0.0
sg2693
F0.0
saa(lp2850
I7
aS'X7'
p2851
aI10
a(dp2852
g2677
g12
(g16
S'\x00\x00\x00\x00\x00\x00\x00\x00'
p2853
tp2854
Rp2855
sg2681
g12
(g16
S'\x00\x00\x00\x00\x00\x00\x00\x00'
p2856
tp2857
Rp2858
sg2685
g12
(g16
S'\x00\x00\x00\x00\x00\x00\x00\x00'
p2859
tp2860
Rp2861
sg2689
g12
(g16
S'\x00\x00\x00\x00\x00\x00\x00\x00'
p2862
tp2863
Rp2864
sg2693
g12
(g16
S'\x00\x00\x00\x00\x00\x00\x00\x00'
p2865
tp2866
Rp2867
sa(dp2868
g2677
F0.0
sg2681
F0.0
sg2685
F0.0
sg2689
F0.0
sg2693
F0.0
saa(lp2869
I7
aS'X7'
p2870
aI11
a(dp2871
g2677
g12
(g16
S'*b\xb0?\x0f\xe4H\xbf'
p2872
tp2873
Rp2874
sg2681
g12
(g16
S'\xfa\xb13s\xff>H\xbf'
p2875
tp2876
Rp2877
sg2685
g12
(g16
S'b\x07\xda\x9cy\x13H\xbf'
p2878
tp2879
Rp2880
sg2689
g12
(g16
S'\xf6\xd7y\xc3g<I\xbf'
p2881
tp2882
Rp2883
sg2693
g12
(g16
S'\xf7y\xc7@ \xc9G\xbf'
p2884
tp2885
Rp2886
sa(dp2887
g2677
F0.0
sg2681
F0.0
sg2685
F0.0
sg2689
F0.0
sg2693
F0.0
saa(lp2888
I7
aS'X7'
p2889
aI12
a(dp2890
g2677
g12
(g16
S'\x0c*F\x91wQV\xbf'
p2891
tp2892
Rp2893
sg2681
g12
(g16
S'd\xedC\x9b\xfd\xafU\xbf'
p2894
tp2895
Rp2896
sg2685
g12
(g16
S'k\x88\xeaL?\x91U\xbf'
p2897
tp2898
Rp2899
sg2689
g12
(g16
S'\x0e\xe8\xbbHh\x8fV\xbf'
p2900
tp2901
Rp2902
sg2693
g12
(g16
S'\xaa\xf1\xe4\xd4~rU\xbf'
p2903
tp2904
Rp2905
sa(dp2906
g2677
F0.0
sg2681
F0.0
sg2685
F0.0
sg2689
F0.0
sg2693
F0.0
saa(lp2907
I7
aS'X7'
p2908
aI13
a(dp2909
g2677
g12
(g16
S'c\x9f\x06\xde>*\\\xbf'
p2910
tp2911
Rp2912
sg2681
g12
(g16
S'\x97\xb1\x1a`\xe1D[\xbf'
p2913
tp2914
Rp2915
sg2685
g12
(g16
S'\x0bwx\xdc\xd4-[\xbf'
p2916
tp2917
Rp2918
sg2689
g12
(g16
S'\xedK\xb4\xbf\xc5W\\\xbf'
p2919
tp2920
Rp2921
sg2693
g12
(g16
S'\x8bq\xe1\x04MK[\xbf'
p2922
tp2923
Rp2924
sa(dp2925
g2677
F0.0
sg2681
F0.0
sg2685
F0.0
sg2689
F0.0
sg2693
F0.0
saa(lp2926
I7
aS'X7'
p2927
aI14
a(dp2928
g2677
g12
(g16
S'g0\xf47\xfd\x08^\xbf'
p2929
tp2930
Rp2931
sg2681
g12
(g16
S'W\xb3O\xcf_\xf4\\\xbf'
p2932
tp2933
Rp2934
sg2685
g12
(g16
S'[\xde\xd3\x83\x83\xef\\\xbf'
p2935
tp2936
Rp2937
sg2689
g12
(g16
S'\xd5\xb6\xff\x10\xd6\x10^\xbf'
p2938
tp2939
Rp2940
sg2693
g12
(g16
S't\x00\xa2h\xd3d]\xbf'
p2941
tp2942
Rp2943
sa(dp2944
g2677
F0.0
sg2681
F0.0
sg2685
F0.0
sg2689
F0.0
sg2693
F0.0
saa(lp2945
I7
aS'X7'
p2946
aI15
a(dp2947
g2677
g12
(g16
S'I\xe3\x9e\xce\x97\n]\xbf'
p2948
tp2949
Rp2950
sg2681
g12
(g16
S'\x1d\xa5\x1f\xcdv\xe0[\xbf'
p2951
tp2952
Rp2953
sg2685
g12
(g16
S'\xeeV9\x10\xb8\xee[\xbf'
p2954
tp2955
Rp2956
sg2689
g12
(g16
S'\xea\r%\xe6\xc3\xeb\\\xbf'
p2957
tp2958
Rp2959
sg2693
g12
(g16
S'\xbf\xb7v\x1e\x02\xb2\\\xbf'
p2960
tp2961
Rp2962
sa(dp2963
g2677
F0.0
sg2681
F0.0
sg2685
F0.0
sg2689
F0.0
sg2693
F0.0
saa(lp2964
I7
aS'X7'
p2965
aI16
a(dp2966
g2677
g12
(g16
S'\xbbnY\x1b\x8a\x92Z\xbf'
p2967
tp2968
Rp2969
sg2681
g12
(g16
S'\xfa\xea\xa4\xfa\rjY\xbf'
p2970
tp2971
Rp2972
sg2685
g12
(g16
S'\x89a\xf1\xda\xd3\x85Y\xbf'
p2973
tp2974
Rp2975
sg2689
g12
(g16
S'\xac\x03\xe3.AYZ\xbf'
p2976
tp2977
Rp2978
sg2693
g12
(g16
S'\\r\x9dW\x9dvZ\xbf'
p2979
tp2980
Rp2981
sa(dp2982
g2677
F0.0
sg2681
F0.0
sg2685
F0.0
sg2689
F0.0
sg2693
F0.0
saa(lp2983
I7
aS'X7'
p2984
aI17
a(dp2985
g2677
g12
(g16
S'1\x92\xc3\x03\x17\xb2W\xbf'
p2986
tp2987
Rp2988
sg2681
g12
(g16
S"'\x8c\xeb/\xad\x9aV\xbf"
p2989
tp2990
Rp2991
sg2685
g12
(g16
S'\xec\x8c\xe5\xfc\xd7\xbcV\xbf'
p2992
tp2993
Rp2994
sg2689
g12
(g16
S'\n[\xb9,\x08mW\xbf'
p2995
tp2996
Rp2997
sg2693
g12
(g16
S'\x1f4\xf7\xb8q\xb9W\xbf'
p2998
tp2999
Rp3000
sa(dp3001
g2677
F0.0
sg2681
F0.0
sg2685
F0.0
sg2689
F0.0
sg2693
F0.0
saa(lp3002
I7
aS'X7'
p3003
aI18
a(dp3004
g2677
g12
(g16
S'\x8d\x8f\x0c\xf3\xc0\x00U\xbf'
p3005
tp3006
Rp3007
sg2681
g12
(g16
S'u\xb8>\xb9\x03\x01T\xbf'
p3008
tp3009
Rp3010
sg2685
g12
(g16
S'\xb9C\xe5Gx$T\xbf'
p3011
tp3012
Rp3013
sg2689
g12
(g16
S'\x81\xc5\x1e\x99[\xbaT\xbf'
p3014
tp3015
Rp3016
sg2693
g12
(g16
S"'3n\x04\xa4\x16U\xbf"
p3017
tp3018
Rp3019
sa(dp3020
g2677
F0.0
sg2681
F0.0
sg2685
F0.0
sg2689
F0.0
sg2693
F0.0
saa(lp3021
I7
aS'X7'
p3022
aI19
a(dp3023
g2677
g12
(g16
S'\x0e{.}_\xb4R\xbf'
p3024
tp3025
Rp3026
sg2681
g12
(g16
S"\xfc3&'\xd6\xccQ\xbf"
p3027
tp3028
Rp3029
sg2685
g12
(g16
S'o\xa0p\x1d\xfa\xeeQ\xbf'
p3030
tp3031
Rp3032
sg2689
g12
(g16
S'\xd8\xb0\xdbZ\xc5qR\xbf'
p3033
tp3034
Rp3035
sg2693
g12
(g16
S'\x9e]\xaf"\x19\xcdR\xbf'
p3036
tp3037
Rp3038
sa(dp3039
g2677
F0.0
sg2681
F0.0
sg2685
F0.0
sg2689
F0.0
sg2693
F0.0
saasS'Scan_1'
p3040
(lp3041
(lp3042
I1
aS'X1'
p3043
aI1
a(dp3044
S'281'
p3045
g12
(g16
S'W!\xcc\xc3\x92\x08L\xbf'
p3046
tp3047
Rp3048
sS'1783'
p3049
g12
(g16
S'\xd3?\x81\x8b-\xacJ\xbf'
p3050
tp3051
Rp3052
sS'872'
p3053
g12
(g16
S'a\xcd6/\x18\xe5J\xbf'
p3054
tp3055
Rp3056
sS'2063'
p3057
g12
(g16
S"`'\x97M\xdd\xa3K\xbf"
p3058
tp3059
Rp3060
sS'41'
p3061
g12
(g16
S'%{\x00^\xf0\x1eL\xbf'
p3062
tp3063
Rp3064
sa(dp3065
g3045
F0.0
sg3049
F0.0
sg3053
F0.0
sg3057
F0.0
sg3061
F0.0
saa(lp3066
I1
aS'X1'
p3067
aI2
a(dp3068
g3045
g12
(g16
S'\x86\n\xf8*+\x9dN\xbf'
p3069
tp3070
Rp3071
sg3049
g12
(g16
S'\xa6\xc0\x05\x1a,#M\xbf'
p3072
tp3073
Rp3074
sg3053
g12
(g16
S'\xd6\x85\xc7\xa42aM\xbf'
p3075
tp3076
Rp3077
sg3057
g12
(g16
S'\xf2\x12\xcaZ\x8d/N\xbf'
p3078
tp3079
Rp3080
sg3061
g12
(g16
S'\xa4*\xa5\xb6\x9f\xb7N\xbf'
p3081
tp3082
Rp3083
sa(dp3084
g3045
F0.0
sg3049
F0.0
sg3053
F0.0
sg3057
F0.0
sg3061
F0.0
saa(lp3085
I1
aS'X1'
p3086
aI3
a(dp3087
g3045
g12
(g16
S'\xef#^\xd9v\xdaP\xbf'
p3088
tp3089
Rp3090
sg3049
g12
(g16
S'\xb0aP0f\x0cP\xbf'
p3091
tp3092
Rp3093
sg3053
g12
(g16
S'\xea\x16\xeeW).P\xbf'
p3094
tp3095
Rp3096
sg3057
g12
(g16
S'\xb8\xb1\xadU\x8a\x9eP\xbf'
p3097
tp3098
Rp3099
sg3061
g12
(g16
S'\xbd\xa6\xc7\x1f\x16\xeaP\xbf'
p3100
tp3101
Rp3102
sa(dp3103
g3045
F0.0
sg3049
F0.0
sg3053
F0.0
sg3057
F0.0
sg3061
F0.0
saa(lp3104
I1
aS'X1'
p3105
aI4
a(dp3106
g3045
g12
(g16
S'&\xe4\xe4\xca\x04\xbcR\xbf'
p3107
tp3108
Rp3109
sg3049
g12
(g16
S'\xd1\xbf\xaf\x83\x97\xdaQ\xbf'
p3110
tp3111
Rp3112
sg3053
g12
(g16
S'\xd5z\xbcB\x9d\xfeQ\xbf'
p3113
tp3114
Rp3115
sg3057
g12
(g16
S'%\x0c\xc2TEzR\xbf'
p3116
tp3117
Rp3118
sg3061
g12
(g16
S'\xe33\x93\xdc\xab\xcdR\xbf'
p3119
tp3120
Rp3121
sa(dp3122
g3045
F0.0
sg3049
F0.0
sg3053
F0.0
sg3057
F0.0
sg3061
F0.0
saa(lp3123
I1
aS'X1'
p3124
aI5
a(dp3125
g3045
g12
(g16
S'D\xa6\xd8w\x82\x03U\xbf'
p3126
tp3127
Rp3128
sg3049
g12
(g16
S'7\xc6nE\xb2\rT\xbf'
p3129
tp3130
Rp3131
sg3053
g12
(g16
S'@\xf6\x9e\xd6\x821T\xbf'
p3132
tp3133
Rp3134
sg3057
g12
(g16
S'\x9eR\xbc\xb2\xcd\xbbT\xbf'
p3135
tp3136
Rp3137
sg3061
g12
(g16
S'\xd7\xb9qfz\x14U\xbf'
p3138
tp3139
Rp3140
sa(dp3141
g3045
F0.0
sg3049
F0.0
sg3053
F0.0
sg3057
F0.0
sg3061
F0.0
saa(lp3142
I1
aS'X1'
p3143
aI6
a(dp3144
g3045
g12
(g16
S"\xf0\x8a\xda']\xb3W\xbf"
p3145
tp3146
Rp3147
sg3049
g12
(g16
S'\\`\xfb\xc1\xb5\xabV\xbf'
p3148
tp3149
Rp3150
sg3053
g12
(g16
S'\x8ct\xc8\xa2\x96\xc8V\xbf'
p3151
tp3152
Rp3153
sg3057
g12
(g16
S'\xb5\xc3\xc8^\x08gW\xbf'
p3154
tp3155
Rp3156
sg3061
g12
(g16
S'b\x90\xc1\x80\xf4\xbbW\xbf'
p3157
tp3158
Rp3159
sa(dp3160
g3045
F0.0
sg3049
F0.0
sg3053
F0.0
sg3057
F0.0
sg3061
F0.0
saa(lp3161
I1
aS'X1'
p3162
aI7
a(dp3163
g3045
g12
(g16
S'\xf0\x81\xdb&~\x9dZ\xbf'
p3164
tp3165
Rp3166
sg3049
g12
(g16
S'`7\x1f$]\x8dY\xbf'
p3167
tp3168
Rp3169
sg3053
g12
(g16
S'\xecb1\xec8\x96Y\xbf'
p3170
tp3171
Rp3172
sg3057
g12
(g16
S'\xebxe*UPZ\xbf'
p3173
tp3174
Rp3175
sg3061
g12
(g16
S'\xe6\xdf\x97&\xbe\x8eZ\xbf'
p3176
tp3177
Rp3178
sa(dp3179
g3045
F0.0
sg3049
F0.0
sg3053
F0.0
sg3057
F0.0
sg3061
F0.0
saa(lp3180
I1
aS'X1'
p3181
aI8
a(dp3182
g3045
g12
(g16
S'\xa2\xb4m\x00\x0f/]\xbf'
p3183
tp3184
Rp3185
sg3049
g12
(g16
S'>\xf2\xaa\x8f\x8d(\\\xbf'
p3186
tp3187
Rp3188
sg3053
g12
(g16
S'\x94t,\xa2\xa8\x0b\\\xbf'
p3189
tp3190
Rp3191
sg3057
g12
(g16
S'\xa7>\xaf/\xe7\xe7\\\xbf'
p3192
tp3193
Rp3194
sg3061
g12
(g16
S'\x1c\xcb\xebF\x1a\xf5\\\xbf'
p3195
tp3196
Rp3197
sa(dp3198
g3045
F0.0
sg3049
F0.0
sg3053
F0.0
sg3057
F0.0
sg3061
F0.0
saa(lp3199
I1
aS'X1'
p3200
aI9
a(dp3201
g3045
g12
(g16
S'\x1fJ\xb6\xc0ZU^\xbf'
p3202
tp3203
Rp3204
sg3049
g12
(g16
S'7+\xad\xf7\x98p]\xbf'
p3205
tp3206
Rp3207
sg3053
g12
(g16
S'\xbaA\x10w\xb6 ]\xbf'
p3208
tp3209
Rp3210
sg3057
g12
(g16
S'\xe2h\x93\xf5o\x1c^\xbf'
p3211
tp3212
Rp3213
sg3061
g12
(g16
S'\x19\x08\x825\x8b\xe2]\xbf'
p3214
tp3215
Rp3216
sa(dp3217
g3045
F0.0
sg3049
F0.0
sg3053
F0.0
sg3057
F0.0
sg3061
F0.0
saa(lp3218
I1
aS'X1'
p3219
aI10
a(dp3220
g3045
g12
(g16
S'e\xf2\x0f\x97\x00\x9a\\\xbf'
p3221
tp3222
Rp3223
sg3049
g12
(g16
S'\xea\x8a\xb5+@\xec[\xbf'
p3224
tp3225
Rp3226
sg3053
g12
(g16
S'!TQ\x18\x07p[\xbf'
p3227
tp3228
Rp3229
sg3057
g12
(g16
S'\x1c\x9b\x9a_\xcct\\\xbf'
p3230
tp3231
Rp3232
sg3061
g12
(g16
S'\xd3\xceWF\x12\xf8[\xbf'
p3233
tp3234
Rp3235
sa(dp3236
g3045
F0.0
sg3049
F0.0
sg3053
F0.0
sg3057
F0.0
sg3061
F0.0
saa(lp3237
I1
aS'X1'
p3238
aI11
a(dp3239
g3045
g12
(g16
S'#\xc1=\xf0\xe9\xc7V\xbf'
p3240
tp3241
Rp3242
sg3049
g12
(g16
S'd\x181m\xe3YV\xbf'
p3243
tp3244
Rp3245
sg3053
g12
(g16
S'\xea\x19\x9a\xec<\xd5U\xbf'
p3246
tp3247
Rp3248
sg3057
g12
(g16
S'\x85eg:y\xb5V\xbf'
p3249
tp3250
Rp3251
sg3061
g12
(g16
S'\xf0\xa5v\x04\x12"V\xbf'
p3252
tp3253
Rp3254
sa(dp3255
g3045
F0.0
sg3049
F0.0
sg3053
F0.0
sg3057
F0.0
sg3061
F0.0
saa(lp3256
I1
aS'X1'
p3257
aI12
a(dp3258
g3045
g12
(g16
S'\xa0\xcbP\xa6\xc3~I\xbf'
p3259
tp3260
Rp3261
sg3049
g12
(g16
S'\xf8\xeaZ\x95\xcd\x18I\xbf'
p3262
tp3263
Rp3264
sg3053
g12
(g16
S'k\x86\xb2\xe5\xf0jH\xbf'
p3265
tp3266
Rp3267
sg3057
g12
(g16
S'\xcb\n8`\x84rI\xbf'
p3268
tp3269
Rp3270
sg3061
g12
(g16
S'\xa9\x14\xff\x8d\x89\xa9H\xbf'
p3271
tp3272
Rp3273
sa(dp3274
g3045
F0.0
sg3049
F0.0
sg3053
F0.0
sg3057
F0.0
sg3061
F0.0
saa(lp3275
I1
aS'X1'
p3276
aI13
a(dp3277
g3045
g12
(g16
S'\x00\x00\x00\x00\x00\x00\x00\x00'
p3278
tp3279
Rp3280
sg3049
g12
(g16
S'\x00\x00\x00\x00\x00\x00\x00\x00'
p3281
tp3282
Rp3283
sg3053
g12
(g16
S'\x00\x00\x00\x00\x00\x00\x00\x00'
p3284
tp3285
Rp3286
sg3057
g12
(g16
S'\x00\x00\x00\x00\x00\x00\x00\x00'
p3287
tp3288
Rp3289
sg3061
g12
(g16
S'\x00\x00\x00\x00\x00\x00\x00\x00'
p3290
tp3291
Rp3292
sa(dp3293
g3045
F0.0
sg3049
F0.0
sg3053
F0.0
sg3057
F0.0
sg3061
F0.0
saa(lp3294
I1
aS'X1'
p3295
aI14
a(dp3296
g3045
g12
(g16
S'\xa2\xe3&\x91\xe2}I?'
p3297
tp3298
Rp3299
sg3049
g12
(g16
S'\xdb\xcd%\t\xd0\x17I?'
p3300
tp3301
Rp3302
sg3053
g12
(g16
S'\xd6n}\xee\xfeiH?'
p3303
tp3304
Rp3305
sg3057
g12
(g16
S'b\xd5y1\x87qI?'
p3306
tp3307
Rp3308
sg3061
g12
(g16
S"\xfd'\xbf\xfa\xac\xa8H?"
p3309
tp3310
Rp3311
sa(dp3312
g3045
F0.0
sg3049
F0.0
sg3053
F0.0
sg3057
F0.0
sg3061
F0.0
saa(lp3313
I1
aS'X1'
p3314
aI15
a(dp3315
g3045
g12
(g16
S'\x92\x04\xebG6\xc7V?'
p3316
tp3317
Rp3318
sg3049
g12
(g16
S'Y\x9c\xda]\x1dYV?'
p3319
tp3320
Rp3321
sg3053
g12
(g16
S'\xd2?YW~\xd4U?'
p3322
tp3323
Rp3324
sg3057
g12
(g16
S"\xd3\x8b'\xba\xa4\xb4V?"
p3325
tp3326
Rp3327
sg3061
g12
(g16
S'oaS\x90u!V?'
p3328
tp3329
Rp3330
sa(dp3331
g3045
F0.0
sg3049
F0.0
sg3053
F0.0
sg3057
F0.0
sg3061
F0.0
saa(lp3332
I1
aS'X1'
p3333
aI16
a(dp3334
g3045
g12
(g16
S'\x11\xcc\xe2\xf1\x04\x99\\?'
p3335
tp3336
Rp3337
sg3049
g12
(g16
S'\x87h\x81\xa0H\xeb[?'
p3338
tp3339
Rp3340
sg3053
g12
(g16
S'R\xb4\x8av\x14o[?'
p3341
tp3342
Rp3343
sg3057
g12
(g16
S'\xfa\x96-j\xads\\?'
p3344
tp3345
Rp3346
sg3061
g12
(g16
S'\xbfH\xf6\x19\\\xf7[?'
p3347
tp3348
Rp3349
sa(dp3350
g3045
F0.0
sg3049
F0.0
sg3053
F0.0
sg3057
F0.0
sg3061
F0.0
saa(lp3351
I1
aS'X1'
p3352
aI17
a(dp3353
g3045
g12
(g16
S'\xe8N\xf3o\xa3R^?'
p3354
tp3355
Rp3356
sg3049
g12
(g16
S'^$\x1d\x15\tn]?'
p3357
tp3358
Rp3359
sg3053
g12
(g16
S'\xfa\nj\xe5(\x1e]?'
p3360
tp3361
Rp3362
sg3057
g12
(g16
S'\xfc\x1f\x90Y\xa7\x19^?'
p3363
tp3364
Rp3365
sg3061
g12
(g16
S'slj\xc7C\xe0]?'
p3366
tp3367
Rp3368
sa(dp3369
g3045
F0.0
sg3049
F0.0
sg3053
F0.0
sg3057
F0.0
sg3061
F0.0
saa(lp3370
I1
aS'X1'
p3371
aI18
a(dp3372
g3045
g12
(g16
S'\xce\xc9\xe2\x96,,]?'
p3373
tp3374
Rp3375
sg3049
g12
(g16
S'728\x9d\xca%\\?'
p3376
tp3377
Rp3378
sg3053
g12
(g16
S'^\xab\xa8\xe8\xee\x08\\?'
p3379
tp3380
Rp3381
sg3057
g12
(g16
S"'\xca\xf9\x8c\xfa\xe4\\?"
p3382
tp3383
Rp3384
sg3061
g12
(g16
S'K\xcex\xa0\xbb\xf2\\?'
p3385
tp3386
Rp3387
sa(dp3388
g3045
F0.0
sg3049
F0.0
sg3053
F0.0
sg3057
F0.0
sg3061
F0.0
saa(lp3389
I1
aS'X1'
p3390
aI19
a(dp3391
g3045
g12
(g16
S'\xfco\x8bhA\x9aZ?'
p3392
tp3393
Rp3394
sg3049
g12
(g16
S'-\x1d\xfa\xf9*\x8aY?'
p3395
tp3396
Rp3397
sg3053
g12
(g16
S'\xee]\xa1\xda\x17\x93Y?'
p3398
tp3399
Rp3400
sg3057
g12
(g16
S'>\xb6\xa9+\xf7LZ?'
p3401
tp3402
Rp3403
sg3061
g12
(g16
S'Y\xa0\x1f\xd7\xfa\x8bZ?'
p3404
tp3405
Rp3406
sa(dp3407
g3045
F0.0
sg3049
F0.0
sg3053
F0.0
sg3057
F0.0
sg3061
F0.0
saa(lp3408
I1
aS'X1'
p3409
aI20
a(dp3410
g3045
g12
(g16
S'\xe8\x11\t\x9fO\xb0W?'
p3411
tp3412
Rp3413
sg3049
g12
(g16
S"/$\x0f'\xc8\xa8V?"
p3414
tp3415
Rp3416
sg3053
g12
(g16
S'\x1d\xf7\xc1*\xaf\xc5V?'
p3417
tp3418
Rp3419
sg3057
g12
(g16
S'd~Pr\xdacW?'
p3420
tp3421
Rp3422
sg3061
g12
(g16
S'\xe60=\x99^\xb9W?'
p3423
tp3424
Rp3425
sa(dp3426
g3045
F0.0
sg3049
F0.0
sg3053
F0.0
sg3057
F0.0
sg3061
F0.0
saa(lp3427
I1
aS'X1'
p3428
aI21
a(dp3429
g3045
g12
(g16
S'\x08<\xdd\xaf\xa5\x00U?'
p3430
tp3431
Rp3432
sg3049
g12
(g16
S'\xa8j\xd6z\xfc\nT?'
p3433
tp3434
Rp3435
sg3053
g12
(g16
S'@\xad\xab;\xc7.T?'
p3436
tp3437
Rp3438
sg3057
g12
(g16
S'r\x13\x07\x08\xdd\xb8T?'
p3439
tp3440
Rp3441
sg3061
g12
(g16
S'\x1fk\xb3H!\x12U?'
p3442
tp3443
Rp3444
sa(dp3445
g3045
F0.0
sg3049
F0.0
sg3053
F0.0
sg3057
F0.0
sg3061
F0.0
saa(lp3446
I1
aS'X1'
p3447
aI22
a(dp3448
g3045
g12
(g16
S'\x06n\xb9\xfb9\xb9R?'
p3449
tp3450
Rp3451
sg3049
g12
(g16
S'\x10"\xf8s\xf1\xd7Q?'
p3452
tp3453
Rp3454
sg3053
g12
(g16
S'\xdc;\xf0\x1d\xed\xfbQ?'
p3455
tp3456
Rp3457
sg3057
g12
(g16
S'\xa4&\x9bChwR?'
p3458
tp3459
Rp3460
sg3061
g12
(g16
S'\xc5;J\xbde\xcbR?'
p3461
tp3462
Rp3463
sa(dp3464
g3045
F0.0
sg3049
F0.0
sg3053
F0.0
sg3057
F0.0
sg3061
F0.0
saa(lp3465
I1
aS'X1'
p3466
aI23
a(dp3467
g3045
g12
(g16
S'\n,\xa3]-\xd8P?'
p3468
tp3469
Rp3470
sg3049
g12
(g16
S'\xf5\xd9\x0e\r:\nP?'
p3471
tp3472
Rp3473
sg3053
g12
(g16
S'8!-|\xf0+P?'
p3474
tp3475
Rp3476
sg3057
g12
(g16
S"'\x19\xd4%'\x9cP?"
p3477
tp3478
Rp3479
sg3061
g12
(g16
S'N\xae\xf1yP\xe8P?'
p3480
tp3481
Rp3482
sa(dp3483
g3045
F0.0
sg3049
F0.0
sg3053
F0.0
sg3057
F0.0
sg3061
F0.0
saa(lp3484
I1
aS'X1'
p3485
aI24
a(dp3486
g3045
g12
(g16
S'\xd7\x19\x1fu_\x97N?'
p3487
tp3488
Rp3489
sg3049
g12
(g16
S'\x98p\x83\xcb\xb9\x1dM?'
p3490
tp3491
Rp3492
sg3053
g12
(g16
S'\xdfm\xe9\xd9\xa4[M?'
p3493
tp3494
Rp3495
sg3057
g12
(g16
S'\x1c\x83W8\xa5)N?'
p3496
tp3497
Rp3498
sg3061
g12
(g16
S'\xe2/\xe2\x05\xca\xb2N?'
p3499
tp3500
Rp3501
sa(dp3502
g3045
F0.0
sg3049
F0.0
sg3053
F0.0
sg3057
F0.0
sg3061
F0.0
saa(lp3503
I1
aS'X1'
p3504
aI25
a(dp3505
g3045
g12
(g16
S'X\xdf\xedD\x91\x02L?'
p3506
tp3507
Rp3508
sg3049
g12
(g16
S'qP\x13\x11y\xa6J?'
p3509
tp3510
Rp3511
sg3053
g12
(g16
S'\xe6Na\xd9[\xdfJ?'
p3512
tp3513
Rp3514
sg3057
g12
(g16
S'3\xba(t\xa8\x9dK?'
p3515
tp3516
Rp3517
sg3061
g12
(g16
S'Vfv\x98\xd3\x19L?'
p3518
tp3519
Rp3520
sa(dp3521
g3045
F0.0
sg3049
F0.0
sg3053
F0.0
sg3057
F0.0
sg3061
F0.0
saasS'Scan_2'
p3522
(lp3523
(lp3524
I2
aS'Y2'
p3525
aI1
a(dp3526
S'281'
p3527
F0.0
sS'1783'
p3528
F0.0
sS'872'
p3529
F0.0
sS'2063'
p3530
F0.0
sS'41'
p3531
F0.0
sa(dp3532
g3527
g12
(g16
S'\xb8\xef\xbc*3\xdaI\xbf'
p3533
tp3534
Rp3535
sg3528
g12
(g16
S'\x1dzL\x0e+\x85H\xbf'
p3536
tp3537
Rp3538
sg3529
g12
(g16
S'0\x15\xce\x06~\xb9H\xbf'
p3539
tp3540
Rp3541
sg3530
g12
(g16
S'\x938\x8d:\xfdyI\xbf'
p3542
tp3543
Rp3544
sg3531
g12
(g16
S'YR`\xd4\xab\xdcI\xbf'
p3545
tp3546
Rp3547
saa(lp3548
I2
aS'Y2'
p3549
aI2
a(dp3550
g3527
F0.0
sg3528
F0.0
sg3529
F0.0
sg3530
F0.0
sg3531
F0.0
sa(dp3551
g3527
g12
(g16
S'8\x1d\xe4\x91 +L\xbf'
p3552
tp3553
Rp3554
sg3528
g12
(g16
S'\x88\x84\xc6\xc9\xb4\xb5J\xbf'
p3555
tp3556
Rp3557
sg3529
g12
(g16
S'g\xafdx\xab\xeeJ\xbf'
p3558
tp3559
Rp3560
sg3530
g12
(g16
S'\x87J\xc1\xe4\xfa\xc1K\xbf'
p3561
tp3562
Rp3563
sg3531
g12
(g16
S'\x0f=\xeaG\xf1+L\xbf'
p3564
tp3565
Rp3566
saa(lp3567
I2
aS'Y2'
p3568
aI3
a(dp3569
g3527
F0.0
sg3528
F0.0
sg3529
F0.0
sg3530
F0.0
sg3531
F0.0
sa(dp3570
g3527
g12
(g16
S'\xdd\xe0>\x03\xdd\xefN\xbf'
p3571
tp3572
Rp3573
sg3528
g12
(g16
S'\x02+6\xa4xSM\xbf'
p3574
tp3575
Rp3576
sg3529
g12
(g16
S'\x8bvW=\xc1\x91M\xbf'
p3577
tp3578
Rp3579
sg3530
g12
(g16
S'\x1b2\xf9\xf2\x15|N\xbf'
p3580
tp3581
Rp3582
sg3531
g12
(g16
S'V\xb1y\xae\x0e\xeeN\xbf'
p3583
tp3584
Rp3585
saa(lp3586
I2
aS'Y2'
p3587
aI4
a(dp3588
g3527
F0.0
sg3528
F0.0
sg3529
F0.0
sg3530
F0.0
sg3531
F0.0
sa(dp3589
g3527
g12
(g16
S'J\x93\x9e\xf9\xd7$Q\xbf'
p3590
tp3591
Rp3592
sg3528
g12
(g16
S'\x1f\xad**`?P\xbf'
p3593
tp3594
Rp3595
sg3529
g12
(g16
S'\x95\xf7e\xa2SaP\xbf'
p3596
tp3597
Rp3598
sg3530
g12
(g16
S'\x9c\x84\x8d\xbd\xaf\xe4P\xbf'
p3599
tp3600
Rp3601
sg3531
g12
(g16
S'U\xc4U\xae\xad!Q\xbf'
p3602
tp3603
Rp3604
saa(lp3605
I2
aS'Y2'
p3606
aI5
a(dp3607
g3527
F0.0
sg3528
F0.0
sg3529
F0.0
sg3530
F0.0
sg3531
F0.0
sa(dp3608
g3527
g12
(g16
S"\x17]'7\x9b/S\xbf"
p3609
tp3610
Rp3611
sg3528
g12
(g16
S'E\xf0\xf07\xd7/R\xbf'
p3612
tp3613
Rp3614
sg3529
g12
(g16
S'\xf0\x99x7\xaaSR\xbf'
p3615
tp3616
Rp3617
sg3530
g12
(g16
S'\x1c{Nd\x8a\xe8R\xbf'
p3618
tp3619
Rp3620
sg3531
g12
(g16
S'\xbd\x11\x95\xc6R(S\xbf'
p3621
tp3622
Rp3623
saa(lp3624
I2
aS'Y2'
p3625
aI6
a(dp3626
g3527
F0.0
sg3528
F0.0
sg3529
F0.0
sg3530
F0.0
sg3531
F0.0
sa(dp3627
g3527
g12
(g16
S"'\xef\xacJ\x19\xa4U\xbf"
p3628
tp3629
Rp3630
sg3528
g12
(g16
S'kk\xdc\xdd\xd1\x8bT\xbf'
p3631
tp3632
Rp3633
sg3529
g12
(g16
S'B\x1d#\xe8G\xadT\xbf'
p3634
tp3635
Rp3636
sg3530
g12
(g16
S'\x94%,\xa5\xfbVU\xbf'
p3637
tp3638
Rp3639
sg3531
g12
(g16
S'J\x98\x15|\x12\x95U\xbf'
p3640
tp3641
Rp3642
saa(lp3643
I2
aS'Y2'
p3644
aI7
a(dp3645
g3527
F0.0
sg3528
F0.0
sg3529
F0.0
sg3530
F0.0
sg3531
F0.0
sa(dp3646
g3527
g12
(g16
S'\x1a\x8d{\xbf\xc9kX\xbf'
p3647
tp3648
Rp3649
sg3528
g12
(g16
S'}|=?\x8eHW\xbf'
p3650
tp3651
Rp3652
sg3529
g12
(g16
S'\x02\xfb4p\xb2\\W\xbf'
p3653
tp3654
Rp3655
sg3530
g12
(g16
S'\xb1q\xf9\xdd\xc0\x1cX\xbf'
p3656
tp3657
Rp3658
sg3531
g12
(g16
S'WmY\xc7\xb9NX\xbf'
p3659
tp3660
Rp3661
saa(lp3662
I2
aS'Y2'
p3663
aI8
a(dp3664
g3527
F0.0
sg3528
F0.0
sg3529
F0.0
sg3530
F0.0
sg3531
F0.0
sa(dp3665
g3527
g12
(g16
S'\x16\x13f\xbc\x9d\x16[\xbf'
p3666
tp3667
Rp3668
sg3528
g12
(g16
S'*\xe7kj@\x08Z\xbf'
p3669
tp3670
Rp3671
sg3529
g12
(g16
S'\r\xd7\xe2\x98\xc0\xfbY\xbf'
p3672
tp3673
Rp3674
sg3530
g12
(g16
S'\xaf\xc0u\xd2~\xceZ\xbf'
p3675
tp3676
Rp3677
sg3531
g12
(g16
S'A\xad\xea\x96c\xe3Z\xbf'
p3678
tp3679
Rp3680
saa(lp3681
I2
aS'Y2'
p3682
aI9
a(dp3683
g3527
F0.0
sg3528
F0.0
sg3529
F0.0
sg3530
F0.0
sg3531
F0.0
sa(dp3684
g3527
g12
(g16
S'\x15.\x18\x0e4\xa5\\\xbf'
p3685
tp3686
Rp3687
sg3528
g12
(g16
S"\x90'\xe0\xfau\xd8[\xbf"
p3688
tp3689
Rp3690
sg3529
g12
(g16
S'jb\x8c}\xf0\x96[\xbf'
p3691
tp3692
Rp3693
sg3530
g12
(g16
S'E\xbd\t3\xe2o\\\xbf'
p3694
tp3695
Rp3696
sg3531
g12
(g16
S'<-\xc0)\xa2V\\\xbf'
p3697
tp3698
Rp3699
saa(lp3700
I2
aS'Y2'
p3701
aI10
a(dp3702
g3527
F0.0
sg3528
F0.0
sg3529
F0.0
sg3530
F0.0
sg3531
F0.0
sa(dp3703
g3527
g12
(g16
S'\xf4U\\a\x16\x8f[\xbf'
p3704
tp3705
Rp3706
sg3528
g12
(g16
S'\x81s\xde\xda\xba$[\xbf'
p3707
tp3708
Rp3709
sg3529
g12
(g16
S'@\xc5\x9c\x9a\xca\xabZ\xbf'
p3710
tp3711
Rp3712
sg3530
g12
(g16
S'-\xa8Jl\x9bt[\xbf'
p3713
tp3714
Rp3715
sg3531
g12
(g16
S'R\xde\xd7AK+[\xbf'
p3716
tp3717
Rp3718
saa(lp3719
I2
aS'Y2'
p3720
aI11
a(dp3721
g3527
F0.0
sg3528
F0.0
sg3529
F0.0
sg3530
F0.0
sg3531
F0.0
sa(dp3722
g3527
g12
(g16
S')v6\x9d\xaf\\V\xbf'
p3723
tp3724
Rp3725
sg3528
g12
(g16
S'qv$}\xc3JV\xbf'
p3726
tp3727
Rp3728
sg3529
g12
(g16
S'\xe6x+z\x02\xbdU\xbf'
p3729
tp3730
Rp3731
sg3530
g12
(g16
S'\x85\xf0\xa5?xYV\xbf'
p3732
tp3733
Rp3734
sg3531
g12
(g16
S'\xc9#t\xa4\xce\xfaU\xbf'
p3735
tp3736
Rp3737
saa(lp3738
I2
aS'Y2'
p3739
aI12
a(dp3740
g3527
F0.0
sg3528
F0.0
sg3529
F0.0
sg3530
F0.0
sg3531
F0.0
sa(dp3741
g3527
g12
(g16
S'\xa4W\xca\x98\x97ZI\xbf'
p3742
tp3743
Rp3744
sg3528
g12
(g16
S'\xdd=<$\xbb|I\xbf'
p3745
tp3746
Rp3747
sg3529
g12
(g16
S'N\xa3t\xc1;\xb9H\xbf'
p3748
tp3749
Rp3750
sg3530
g12
(g16
S'P%2\xb0LeI\xbf'
p3751
tp3752
Rp3753
sg3531
g12
(g16
S'\x04\x1ev$\xc6\xdeH\xbf'
p3754
tp3755
Rp3756
saa(lp3757
I2
aS'Y2'
p3758
aI13
a(dp3759
g3527
F0.0
sg3528
F0.0
sg3529
F0.0
sg3530
F0.0
sg3531
F0.0
sa(dp3760
g3527
g12
(g16
S'\x00\x00\x00\x00\x00\x00\x00\x00'
p3761
tp3762
Rp3763
sg3528
g12
(g16
S'\x00\x00\x00\x00\x00\x00\x00\x00'
p3764
tp3765
Rp3766
sg3529
g12
(g16
S'\x00\x00\x00\x00\x00\x00\x00\x00'
p3767
tp3768
Rp3769
sg3530
g12
(g16
S'\x00\x00\x00\x00\x00\x00\x00\x00'
p3770
tp3771
Rp3772
sg3531
g12
(g16
S'\x00\x00\x00\x00\x00\x00\x00\x00'
p3773
tp3774
Rp3775
saa(lp3776
I2
aS'Y2'
p3777
aI14
a(dp3778
g3527
F0.0
sg3528
F0.0
sg3529
F0.0
sg3530
F0.0
sg3531
F0.0
sa(dp3779
g3527
g12
(g16
S'/H+\x0bFZI?'
p3780
tp3781
Rp3782
sg3528
g12
(g16
S'\xe6\x06\x9c\xaas|I?'
p3783
tp3784
Rp3785
sg3529
g12
(g16
S'\x1dAg\x8d\xef\xb8H?'
p3786
tp3787
Rp3788
sg3530
g12
(g16
S'`\x98\xde\xa0\x05eI?'
p3789
tp3790
Rp3791
sg3531
g12
(g16
S'\xa6\xb2\xebNy\xdeH?'
p3792
tp3793
Rp3794
saa(lp3795
I2
aS'Y2'
p3796
aI15
a(dp3797
g3527
F0.0
sg3528
F0.0
sg3529
F0.0
sg3530
F0.0
sg3531
F0.0
sa(dp3798
g3527
g12
(g16
S']\x00r\xa1\x15]V?'
p3799
tp3800
Rp3801
sg3528
g12
(g16
S'\x85\x82W+)KV?'
p3802
tp3803
Rp3804
sg3529
g12
(g16
S'g\x7fR+[\xbdU?'
p3805
tp3806
Rp3807
sg3530
g12
(g16
S'\xc7\xbd\xe6\x90\xe3YV?'
p3808
tp3809
Rp3810
sg3531
g12
(g16
S'r3\x0e\xe2B\xfbU?'
p3811
tp3812
Rp3813
saa(lp3814
I2
aS'Y2'
p3815
aI16
a(dp3816
g3527
F0.0
sg3528
F0.0
sg3529
F0.0
sg3530
F0.0
sg3531
F0.0
sa(dp3817
g3527
g12
(g16
S'\x02kI\xf8k\x8f[?'
p3818
tp3819
Rp3820
sg3528
g12
(g16
S'\x08x=?\x0f%[?'
p3821
tp3822
Rp3823
sg3529
g12
(g16
S'\xfeo\x1d\x81\x0e\xacZ?'
p3824
tp3825
Rp3826
sg3530
g12
(g16
S'Q\xb0\xbd\xf5\xe9t[?'
p3827
tp3828
Rp3829
sg3531
g12
(g16
S'\xc1\xf9\x80\xb8\xc0+[?'
p3830
tp3831
Rp3832
saa(lp3833
I2
aS'Y2'
p3834
aI17
a(dp3835
g3527
F0.0
sg3528
F0.0
sg3529
F0.0
sg3530
F0.0
sg3531
F0.0
sa(dp3836
g3527
g12
(g16
S'\x96\xe5\x00\x1f\x96\xa4\\?'
p3837
tp3838
Rp3839
sg3528
g12
(g16
S'\xf3\xbb\x1c\xf4\xd6\xd7[?'
p3840
tp3841
Rp3842
sg3529
g12
(g16
S'\xb6D\x92|>\x96[?'
p3843
tp3844
Rp3845
sg3530
g12
(g16
S'\x17\xd4w]Ao\\?'
p3846
tp3847
Rp3848
sg3531
g12
(g16
S'\x93\x0b\xe0\x10-V\\?'
p3849
tp3850
Rp3851
saa(lp3852
I2
aS'Y2'
p3853
aI18
a(dp3854
g3527
F0.0
sg3528
F0.0
sg3529
F0.0
sg3530
F0.0
sg3531
F0.0
sa(dp3855
g3527
g12
(g16
S'o\x03\x00\xae\xe8\x15[?'
p3856
tp3857
Rp3858
sg3528
g12
(g16
S'\xaeKzy\x89\x07Z?'
p3859
tp3860
Rp3861
sg3529
g12
(g16
S'\x91\xeb\x0f\x1a\x06\xfbY?'
p3862
tp3863
Rp3864
sg3530
g12
(g16
S'\xdcy\x83\x9f\xd0\xcdZ?'
p3865
tp3866
Rp3867
sg3531
g12
(g16
S'\xf4\x8c%\xf3\xe2\xe2Z?'
p3868
tp3869
Rp3870
saa(lp3871
I2
aS'Y2'
p3872
aI19
a(dp3873
g3527
F0.0
sg3528
F0.0
sg3529
F0.0
sg3530
F0.0
sg3531
F0.0
sa(dp3874
g3527
g12
(g16
S'?\x02\xf8~\x8djX?'
p3875
tp3876
Rp3877
sg3528
g12
(g16
S'\xed\xd3\xe5\x9f`GW?'
p3878
tp3879
Rp3880
sg3529
g12
(g16
S'\xfe\x03*\x10v[W?'
p3881
tp3882
Rp3883
sg3530
g12
(g16
S'\x04\xa0\xa10\x8c\x1bX?'
p3884
tp3885
Rp3886
sg3531
g12
(g16
S'\x81\xda\x7f\x91\xafMX?'
p3887
tp3888
Rp3889
saa(lp3890
I2
aS'Y2'
p3891
aI20
a(dp3892
g3527
F0.0
sg3528
F0.0
sg3529
F0.0
sg3530
F0.0
sg3531
F0.0
sa(dp3893
g3527
g12
(g16
S'g\xb8\xf7x@\xa3U?'
p3894
tp3895
Rp3896
sg3528
g12
(g16
S'\xe86V\x7f\x03\x8bT?'
p3897
tp3898
Rp3899
sg3529
g12
(g16
S'o\x93\xf2\xc7q\xacT?'
p3900
tp3901
Rp3902
sg3530
g12
(g16
S'X\n\x82\x8f VU?'
p3903
tp3904
Rp3905
sg3531
g12
(g16
S'\xfc\x81\x01\xf2r\x94U?'
p3906
tp3907
Rp3908
saa(lp3909
I2
aS'Y2'
p3910
aI21
a(dp3911
g3527
F0.0
sg3528
F0.0
sg3529
F0.0
sg3530
F0.0
sg3531
F0.0
sa(dp3912
g3527
g12
(g16
S'\xaf)~\x06g.S?'
p3913
tp3914
Rp3915
sg3528
g12
(g16
S'\xc6\x0c\x88\xca\xc5.R?'
p3916
tp3917
Rp3918
sg3529
g12
(g16
S'\xae\x8eL\x0e\x8bRR?'
p3919
tp3920
Rp3921
sg3530
g12
(g16
S'\x86\xd9\xa2\xc8g\xe7R?'
p3922
tp3923
Rp3924
sg3531
g12
(g16
S"\x13\x16\xbf\xe8j'S?"
p3925
tp3926
Rp3927
saa(lp3928
I2
aS'Y2'
p3929
aI22
a(dp3930
g3527
F0.0
sg3528
F0.0
sg3529
F0.0
sg3530
F0.0
sg3531
F0.0
sa(dp3931
g3527
g12
(g16
S"\x03{\x11E'#Q?"
p3932
tp3933
Rp3934
sg3528
g12
(g16
S'\xb036K\xd7=P?'
p3935
tp3936
Rp3937
sg3529
g12
(g16
S'\xf6c\xf2\xc0\xbe_P?'
p3938
tp3939
Rp3940
sg3530
g12
(g16
S'?\xd1\xf4\x0f\x10\xe3P?'
p3941
tp3942
Rp3943
sg3531
g12
(g16
S'\x1bh\x13\xe3K Q?'
p3944
tp3945
Rp3946
saa(lp3947
I2
aS'Y2'
p3948
aI23
a(dp3949
g3527
F0.0
sg3528
F0.0
sg3529
F0.0
sg3530
F0.0
sg3531
F0.0
sa(dp3950
g3527
g12
(g16
S'\x8dN\xd6\xd2\n\xedN?'
p3951
tp3952
Rp3953
sg3528
g12
(g16
S'\xf8h\xb6\xc0\xf5PM?'
p3954
tp3955
Rp3956
sg3529
g12
(g16
S'\x1c|\xb2\xb5\x1e\x8fM?'
p3957
tp3958
Rp3959
sg3530
g12
(g16
S'\x8bcc\xadQyN?'
p3960
tp3961
Rp3962
sg3531
g12
(g16
S'yc\xdd\xd6\xd1\xebN?'
p3963
tp3964
Rp3965
saa(lp3966
I2
aS'Y2'
p3967
aI24
a(dp3968
g3527
F0.0
sg3528
F0.0
sg3529
F0.0
sg3530
F0.0
sg3531
F0.0
sa(dp3969
g3527
g12
(g16
S'\xcf\xf7\x1f\x94\x83(L?'
p3970
tp3971
Rp3972
sg3528
g12
(g16
S'3\x81@\xabS\xb3J?'
p3973
tp3974
Rp3975
sg3529
g12
(g16
S"RJ~\xe4'\xecJ?"
p3976
tp3977
Rp3978
sg3530
g12
(g16
S'\xc2\xb9d\xb3]\xbfK?'
p3979
tp3980
Rp3981
sg3531
g12
(g16
S'C\xe4V\x07\xe3)L?'
p3982
tp3983
Rp3984
saa(lp3985
I2
aS'Y2'
p3986
aI25
a(dp3987
g3527
F0.0
sg3528
F0.0
sg3529
F0.0
sg3530
F0.0
sg3531
F0.0
sa(dp3988
g3527
g12
(g16
S'l\x91\xf7\xe7\xd6\xd6I?'
p3989
tp3990
Rp3991
sg3528
g12
(g16
S'HBR\x8c\x1e\x82H?'
p3992
tp3993
Rp3994
sg3529
g12
(g16
S'\xb6f\x9f\xbeW\xb6H?'
p3995
tp3996
Rp3997
sg3530
g12
(g16
S'\x19\x9e\x1f\xc6\xabvI?'
p3998
tp3999
Rp4000
sg3531
g12
(g16
S'\xc1D\x1d\xf5\xd3\xd9I?'
p4001
tp4002
Rp4003
saasS'Scan_3'
p4004
(lp4005
(lp4006
I3
aS'Y3'
p4007
aI1
a(dp4008
S'281'
p4009
F0.0
sS'1783'
p4010
F0.0
sS'872'
p4011
F0.0
sS'2063'
p4012
F0.0
sS'41'
p4013
F0.0
sa(dp4014
g4009
g12
(g16
S'\xcb\x19\xe4O\xc3\xcaI\xbf'
p4015
tp4016
Rp4017
sg4010
g12
(g16
S'\xaa\xd61h\x1cxH\xbf'
p4018
tp4019
Rp4020
sg4011
g12
(g16
S'\xec&&\xf4{\xabH\xbf'
p4021
tp4022
Rp4023
sg4012
g12
(g16
S'\x92\x91\xa7\xb1\tkI\xbf'
p4024
tp4025
Rp4026
sg4013
g12
(g16
S'\xaa\xa0oM\xbf\xcfI\xbf'
p4027
tp4028
Rp4029
saa(lp4030
I3
aS'Y3'
p4031
aI2
a(dp4032
g4009
F0.0
sg4010
F0.0
sg4011
F0.0
sg4012
F0.0
sg4013
F0.0
sa(dp4033
g4009
g12
(g16
S'\xd0r\x86x\xe7\x18L\xbf'
p4034
tp4035
Rp4036
sg4010
g12
(g16
S'#\xb0\x96\xc3t\xa6J\xbf'
p4037
tp4038
Rp4039
sg4011
g12
(g16
S'b\xae\x11\x8a*\xdeJ\xbf'
p4040
tp4041
Rp4042
sg4012
g12
(g16
S'-\x0f\x0eja\xb0K\xbf'
p4043
tp4044
Rp4045
sg4013
g12
(g16
S'N~e\x10\xd2\x1cL\xbf'
p4046
tp4047
Rp4048
saa(lp4049
I3
aS'Y3'
p4050
aI3
a(dp4051
g4009
F0.0
sg4010
F0.0
sg4011
F0.0
sg4012
F0.0
sg4013
F0.0
sa(dp4052
g4009
g12
(g16
S'TI?,a\xdaN\xbf'
p4053
tp4054
Rp4055
sg4010
g12
(g16
S'<7&\x91\xdbAM\xbf'
p4056
tp4057
Rp4058
sg4011
g12
(g16
S'\x90\x08\xdb\x9f\x8a~M\xbf'
p4059
tp4060
Rp4061
sg4012
g12
(g16
S'k\x99g\xdf\x9fgN\xbf'
p4062
tp4063
Rp4064
sg4013
g12
(g16
S'\n\xa3\x978V\xdcN\xbf'
p4065
tp4066
Rp4067
saa(lp4068
I3
aS'Y3'
p4069
aI4
a(dp4070
g4009
F0.0
sg4010
F0.0
sg4011
F0.0
sg4012
F0.0
sg4013
F0.0
sa(dp4071
g4009
g12
(g16
S'\x9d\xb6\xd8\x85{\x17Q\xbf'
p4072
tp4073
Rp4074
sg4010
g12
(g16
S'Q\xcc\xe3\x7f\x854P\xbf'
p4075
tp4076
Rp4077
sg4011
g12
(g16
S'\xdc\xa6{A\x9bUP\xbf'
p4078
tp4079
Rp4080
sg4012
g12
(g16
S'q\x98\x96\x90;\xd8P\xbf'
p4081
tp4082
Rp4083
sg4013
g12
(g16
S'mf\x1a~y\x16Q\xbf'
p4084
tp4085
Rp4086
saa(lp4087
I3
aS'Y3'
p4088
aI5
a(dp4089
g4009
F0.0
sg4010
F0.0
sg4011
F0.0
sg4012
F0.0
sg4013
F0.0
sa(dp4090
g4009
g12
(g16
S'w\x03\x13\x94\xa6\x1eS\xbf'
p4091
tp4092
Rp4093
sg4010
g12
(g16
S'[\xbe\x84}I"R\xbf'
p4094
tp4095
Rp4096
sg4011
g12
(g16
S'\x06bGq\x96ER\xbf'
p4097
tp4098
Rp4099
sg4012
g12
(g16
S'\xba\xb1\xe0`\xb3\xd9R\xbf'
p4100
tp4101
Rp4102
sg4013
g12
(g16
S' (\x9c\x19\x18\x19S\xbf'
p4103
tp4104
Rp4105
saa(lp4106
I3
aS'Y3'
p4107
aI6
a(dp4108
g4009
F0.0
sg4010
F0.0
sg4011
F0.0
sg4012
F0.0
sg4013
F0.0
sa(dp4109
g4009
g12
(g16
S'\xff\x94\xde\xc7\xde\x8fU\xbf'
p4110
tp4111
Rp4112
sg4010
g12
(g16
S'\x1b=\xe3\x81\x7f|T\xbf'
p4113
tp4114
Rp4115
sg4011
g12
(g16
S'q-#\xc5\t\x9fT\xbf'
p4116
tp4117
Rp4118
sg4012
g12
(g16
S'\xde\xe4}I\x87HU\xbf'
p4119
tp4120
Rp4121
sg4013
g12
(g16
S'\x1d3\xc5\xb7\xe0\x7fU\xbf'
p4122
tp4123
Rp4124
saa(lp4125
I3
aS'Y3'
p4126
aI7
a(dp4127
g4009
F0.0
sg4010
F0.0
sg4011
F0.0
sg4012
F0.0
sg4013
F0.0
sa(dp4128
g4009
g12
(g16
S'\x8c\x98\xcf\xc5eWX\xbf'
p4129
tp4130
Rp4131
sg4010
g12
(g16
S'\xe3-$\xe4K<W\xbf'
p4132
tp4133
Rp4134
sg4011
g12
(g16
S'<\x92\x14\xc3\xc9UW\xbf'
p4135
tp4136
Rp4137
sg4012
g12
(g16
S'm\xb8w`c\x17X\xbf'
p4138
tp4139
Rp4140
sg4013
g12
(g16
S'\xcb\x17\xeb(k1X\xbf'
p4141
tp4142
Rp4143
saa(lp4144
I3
aS'Y3'
p4145
aI8
a(dp4146
g4009
F0.0
sg4010
F0.0
sg4011
F0.0
sg4012
F0.0
sg4013
F0.0
sa(dp4147
g4009
g12
(g16
S"@o(S'\x08[\xbf"
p4148
tp4149
Rp4150
sg4010
g12
(g16
S'\x89\xb8\x9a\xfep\x08Z\xbf'
p4151
tp4152
Rp4153
sg4011
g12
(g16
S'\xc3Vo\x01\xaf\tZ\xbf'
p4154
tp4155
Rp4156
sg4012
g12
(g16
S'\xe1\x02\xc1\xfe\xa6\xe1Z\xbf'
p4157
tp4158
Rp4159
sg4013
g12
(g16
S'\xc7x\x9f\xd2\x86\xbbZ\xbf'
p4160
tp4161
Rp4162
saa(lp4163
I3
aS'Y3'
p4164
aI9
a(dp4165
g4009
F0.0
sg4010
F0.0
sg4011
F0.0
sg4012
F0.0
sg4013
F0.0
sa(dp4166
g4009
g12
(g16
S'`\xa5\xae,\x10\xa5\\\xbf'
p4167
tp4168
Rp4169
sg4010
g12
(g16
S'\xa2\x8f\xd4\xd1\x99\xf1[\xbf'
p4170
tp4171
Rp4172
sg4011
g12
(g16
S';\xb6\xac\x1aG\xc9[\xbf'
p4173
tp4174
Rp4175
sg4012
g12
(g16
S'\x06\\\x881\xee\xac\\\xbf'
p4176
tp4177
Rp4178
sg4013
g12
(g16
S'\xb6@x\x03\xc1$\\\xbf'
p4179
tp4180
Rp4181
saa(lp4182
I3
aS'Y3'
p4183
aI10
a(dp4184
g4009
F0.0
sg4010
F0.0
sg4011
F0.0
sg4012
F0.0
sg4013
F0.0
sa(dp4185
g4009
g12
(g16
S'y\x1cn\xdb\x85\xa0[\xbf'
p4186
tp4187
Rp4188
sg4010
g12
(g16
S'\xc7\xd5\x01\xda\xc2Z[\xbf'
p4189
tp4190
Rp4191
sg4011
g12
(g16
S'S\x0c\xcc7\xd6\x04[\xbf'
p4192
tp4193
Rp4194
sg4012
g12
(g16
S'\x9a\x1az(d\xdd[\xbf'
p4195
tp4196
Rp4197
sg4013
g12
(g16
S'*\x1a\x8a\xae5\xf4Z\xbf'
p4198
tp4199
Rp4200
saa(lp4201
I3
aS'Y3'
p4202
aI11
a(dp4203
g4009
F0.0
sg4010
F0.0
sg4011
F0.0
sg4012
F0.0
sg4013
F0.0
sa(dp4204
g4009
g12
(g16
S'w\xcbF\xfe\x9dwV\xbf'
p4205
tp4206
Rp4207
sg4010
g12
(g16
S'w\xf0\xfe\xa2]\x8dV\xbf'
p4208
tp4209
Rp4210
sg4011
g12
(g16
S'\xa4\xe0\xfcr\xa0#V\xbf'
p4211
tp4212
Rp4213
sg4012
g12
(g16
S'\x88f\xfb\x11\xcc\xd0V\xbf'
p4214
tp4215
Rp4216
sg4013
g12
(g16
S'\x8d\xd1\xafk\xbb\xc8U\xbf'
p4217
tp4218
Rp4219
saa(lp4220
I3
aS'Y3'
p4221
aI12
a(dp4222
g4009
F0.0
sg4010
F0.0
sg4011
F0.0
sg4012
F0.0
sg4013
F0.0
sa(dp4223
g4009
g12
(g16
S'E!\xbc\x99\xf7\x82I\xbf'
p4224
tp4225
Rp4226
sg4010
g12
(g16
S's\xccl\x82\x88\xdaI\xbf'
p4227
tp4228
Rp4229
sg4011
g12
(g16
S'\xa8f\x02\x85\xa2EI\xbf'
p4230
tp4231
Rp4232
sg4012
g12
(g16
S'Y\xd4x\xd5\xa9\x07J\xbf'
p4233
tp4234
Rp4235
sg4013
g12
(g16
S'\x06\x80nX\xa7\xa1H\xbf'
p4236
tp4237
Rp4238
saa(lp4239
I3
aS'Y3'
p4240
aI13
a(dp4241
g4009
F0.0
sg4010
F0.0
sg4011
F0.0
sg4012
F0.0
sg4013
F0.0
sa(dp4242
g4009
g12
(g16
S'\x00\x00\x00\x00\x00\x00\x00\x00'
p4243
tp4244
Rp4245
sg4010
g12
(g16
S'\x00\x00\x00\x00\x00\x00\x00\x00'
p4246
tp4247
Rp4248
sg4011
g12
(g16
S'\x00\x00\x00\x00\x00\x00\x00\x00'
p4249
tp4250
Rp4251
sg4012
g12
(g16
S'\x00\x00\x00\x00\x00\x00\x00\x00'
p4252
tp4253
Rp4254
sg4013
g12
(g16
S'\x00\x00\x00\x00\x00\x00\x00\x00'
p4255
tp4256
Rp4257
saa(lp4258
I3
aS'Y3'
p4259
aI14
a(dp4260
g4009
F0.0
sg4010
F0.0
sg4011
F0.0
sg4012
F0.0
sg4013
F0.0
sa(dp4261
g4009
g12
(g16
S'\x11\x85\x1b\xdc\xe4\x82I?'
p4262
tp4263
Rp4264
sg4010
g12
(g16
S'\xe3MvGi\xdaI?'
p4265
tp4266
Rp4267
sg4011
g12
(g16
S'\xc5\xa3)\xaa}EI?'
p4268
tp4269
Rp4270
sg4012
g12
(g16
S'\xac\xcc\x12\xae\x90\x07J?'
p4271
tp4272
Rp4273
sg4013
g12
(g16
S'#\xcc\x8a\xa2\x9d\xa1H?'
p4274
tp4275
Rp4276
saa(lp4277
I3
aS'Y3'
p4278
aI15
a(dp4279
g4009
F0.0
sg4010
F0.0
sg4011
F0.0
sg4012
F0.0
sg4013
F0.0
sa(dp4280
g4009
g12
(g16
S'1\x96\xd5#1wV?'
p4281
tp4282
Rp4283
sg4010
g12
(g16
S'N4\xa2\xab\xe1\x8cV?'
p4284
tp4285
Rp4286
sg4011
g12
(g16
S'\xd1\xda8\xfb&#V?'
p4287
tp4288
Rp4289
sg4012
g12
(g16
S'\xd55\xc9~`\xd0V?'
p4290
tp4291
Rp4292
sg4013
g12
(g16
S'\xba\xb8}0d\xc8U?'
p4293
tp4294
Rp4295
saa(lp4296
I3
aS'Y3'
p4297
aI16
a(dp4298
g4009
F0.0
sg4010
F0.0
sg4011
F0.0
sg4012
F0.0
sg4013
F0.0
sa(dp4299
g4009
g12
(g16
S'\x0e\xa4\xc7\x11\xbf\x9f[?'
p4300
tp4301
Rp4302
sg4010
g12
(g16
S'\x0e\x8d\xcb\xfb\xebY[?'
p4303
tp4304
Rp4305
sg4011
g12
(g16
S'\x89\x93\xfb\xb8\xfd\x03[?'
p4306
tp4307
Rp4308
sg4012
g12
(g16
S'\x89)\xb7\x9f\x98\xdc[?'
p4309
tp4310
Rp4311
sg4013
g12
(g16
S'q;\xda\xdc\x96\xf3Z?'
p4312
tp4313
Rp4314
saa(lp4315
I3
aS'Y3'
p4316
aI17
a(dp4317
g4009
F0.0
sg4010
F0.0
sg4011
F0.0
sg4012
F0.0
sg4013
F0.0
sa(dp4318
g4009
g12
(g16
S'\xeeJT\x15\x80\xa3\\?'
p4319
tp4320
Rp4321
sg4010
g12
(g16
S'\xbd\x0c#\xaf\x17\xf0[?'
p4322
tp4323
Rp4324
sg4011
g12
(g16
S'\xd6\x02\r\x84\xbf\xc7[?'
p4325
tp4326
Rp4327
sg4012
g12
(g16
S'R\xe4z\x84L\xab\\?'
p4328
tp4329
Rp4330
sg4013
g12
(g16
S'\r\xc9\x0bps#\\?'
p4331
tp4332
Rp4333
saa(lp4334
I3
aS'Y3'
p4335
aI18
a(dp4336
g4009
F0.0
sg4010
F0.0
sg4011
F0.0
sg4012
F0.0
sg4013
F0.0
sa(dp4337
g4009
g12
(g16
S'l\xc1\xea\xeb\x8b\x07[?'
p4338
tp4339
Rp4340
sg4010
g12
(g16
S']\xb1^\xbd\xe9\x07Z?'
p4341
tp4342
Rp4343
sg4011
g12
(g16
S'i\x17\xcb2 \tZ?'
p4344
tp4345
Rp4346
sg4012
g12
(g16
S'!\xd7\xd8h\x04\xe1Z?'
p4347
tp4348
Rp4349
sg4013
g12
(g16
S'\xe6g?f)\xbbZ?'
p4350
tp4351
Rp4352
saa(lp4353
I3
aS'Y3'
p4354
aI19
a(dp4355
g4009
F0.0
sg4010
F0.0
sg4011
F0.0
sg4012
F0.0
sg4013
F0.0
sa(dp4356
g4009
g12
(g16
S'\xa7z\xd5\x1aRVX?'
p4357
tp4358
Rp4359
sg4010
g12
(g16
S'H&W I;W?'
p4360
tp4361
Rp4362
sg4011
g12
(g16
S'\x9e\xf3,e\xc8TW?'
p4363
tp4364
Rp4365
sg4012
g12
(g16
S'\xc0\xe8p:I\x16X?'
p4366
tp4367
Rp4368
sg4013
g12
(g16
S'\x1b\x07\x91\x87\x930X?'
p4369
tp4370
Rp4371
saa(lp4372
I3
aS'Y3'
p4373
aI20
a(dp4374
g4009
F0.0
sg4010
F0.0
sg4011
F0.0
sg4012
F0.0
sg4013
F0.0
sa(dp4375
g4009
g12
(g16
S'L\x99O\x97\xb0\x8eU?'
p4376
tp4377
Rp4378
sg4010
g12
(g16
S'\xc9\xe5-\xeej{T?'
p4379
tp4380
Rp4381
sg4011
g12
(g16
S'\x83\x10=\xf8\xeb\x9dT?'
p4382
tp4383
Rp4384
sg4012
g12
(g16
S'\xfc\x01o\xf7WGU?'
p4385
tp4386
Rp4387
sg4013
g12
(g16
S'\xe1\xce\x81\xc5\xf9~U?'
p4388
tp4389
Rp4390
saa(lp4391
I3
aS'Y3'
p4392
aI21
a(dp4393
g4009
F0.0
sg4010
F0.0
sg4011
F0.0
sg4012
F0.0
sg4013
F0.0
sa(dp4394
g4009
g12
(g16
S'\xcd\xa4x\xa5\x9b\x1cS?'
p4395
tp4396
Rp4397
sg4010
g12
(g16
S'd\xeb\xab?f R?'
p4398
tp4399
Rp4400
sg4011
g12
(g16
S'\xf9\xc1\xcc9\xadCR?'
p4401
tp4402
Rp4403
sg4012
g12
(g16
S'wa\xac\x90\xb4\xd7R?'
p4404
tp4405
Rp4406
sg4013
g12
(g16
S'\x8fY\xbd@]\x17S?'
p4407
tp4408
Rp4409
saa(lp4410
I3
aS'Y3'
p4411
aI22
a(dp4412
g4009
F0.0
sg4010
F0.0
sg4011
F0.0
sg4012
F0.0
sg4013
F0.0
sa(dp4413
g4009
g12
(g16
S'\xdd\x9c\x80\xf2H\x15Q?'
p4414
tp4415
Rp4416
sg4010
g12
(g16
S'b\xa5_\xb4p2P?'
p4417
tp4418
Rp4419
sg4011
g12
(g16
S'\x06k\x1dv\x89SP?'
p4420
tp4421
Rp4422
sg4012
g12
(g16
S'\xa6\x85\x14\x96\x00\xd6P?'
p4423
tp4424
Rp4425
sg4013
g12
(g16
S'\xa9\xf6\x9b\xc1\x92\x14Q?'
p4426
tp4427
Rp4428
saa(lp4429
I3
aS'Y3'
p4430
aI23
a(dp4431
g4009
F0.0
sg4010
F0.0
sg4011
F0.0
sg4012
F0.0
sg4013
F0.0
sa(dp4432
g4009
g12
(g16
S',\x90\xf6YI\xd6N?'
p4433
tp4434
Rp4435
sg4010
g12
(g16
S'\xc77\xc4\x97\t>M?'
p4436
tp4437
Rp4438
sg4011
g12
(g16
S'\x81;\x8e\x0b\xb1zM?'
p4439
tp4440
Rp4441
sg4012
g12
(g16
S'\xbb\x8a!\xa5wcN?'
p4442
tp4443
Rp4444
sg4013
g12
(g16
S'\xc9V\x92\xbe\xd8\xd8N?'
p4445
tp4446
Rp4447
saa(lp4448
I3
aS'Y3'
p4449
aI24
a(dp4450
g4009
F0.0
sg4010
F0.0
sg4011
F0.0
sg4012
F0.0
sg4013
F0.0
sa(dp4451
g4009
g12
(g16
S'\x1d{\x9e\x07c\x15L?'
p4452
tp4453
Rp4454
sg4010
g12
(g16
S'%?\x88\xd3J\xa3J?'
p4455
tp4456
Rp4457
sg4011
g12
(g16
S'\xda\x91M\xc5\xe2\xdaJ?'
p4458
tp4459
Rp4460
sg4012
g12
(g16
S'\xe0\xb0\x88>\xed\xacK?'
p4461
tp4462
Rp4463
sg4013
g12
(g16
S'R\xfb\x13\xe1\xe8\x19L?'
p4464
tp4465
Rp4466
saa(lp4467
I3
aS'Y3'
p4468
aI25
a(dp4469
g4009
F0.0
sg4010
F0.0
sg4011
F0.0
sg4012
F0.0
sg4013
F0.0
sa(dp4470
g4009
g12
(g16
S'\xed\x88\x11{\x03\xc7I?'
p4471
tp4472
Rp4473
sg4010
g12
(g16
S'X\xcf\x14\x96\xaftH?'
p4474
tp4475
Rp4476
sg4011
g12
(g16
S'\xac?~+\xf3\xa7H?'
p4477
tp4478
Rp4479
sg4012
g12
(g16
S'7\xcdgjNgI?'
p4480
tp4481
Rp4482
sg4013
g12
(g16
S'\xa0\xc9{\xd0\x9d\xccI?'
p4483
tp4484
Rp4485
saasS'Scan_8'
p4486
(lp4487
(lp4488
I8
aS'Y8'
p4489
aI1
a(dp4490
S'281'
p4491
F0.0
sS'1783'
p4492
F0.0
sS'872'
p4493
F0.0
sS'2063'
p4494
F0.0
sS'41'
p4495
F0.0
sa(dp4496
g4491
g12
(g16
S'\xdbQj\x0e\x91\xddP?'
p4497
tp4498
Rp4499
sg4492
g12
(g16
S' \x12\xdb\x0c\n\x06P?'
p4500
tp4501
Rp4502
sg4493
g12
(g16
S'\x99\xea\x13X\xe2*P?'
p4503
tp4504
Rp4505
sg4494
g12
(g16
S'\x06\\i{\xf7\x9eP?'
p4506
tp4507
Rp4508
sg4495
g12
(g16
S'\x08\x93\xaf6\x16\xdfP?'
p4509
tp4510
Rp4511
saa(lp4512
I8
aS'Y8'
p4513
aI2
a(dp4514
g4491
F0.0
sg4492
F0.0
sg4493
F0.0
sg4494
F0.0
sg4495
F0.0
sa(dp4515
g4491
g12
(g16
S'V\xb2\xcf\x01:\xdbR?'
p4516
tp4517
Rp4518
sg4492
g12
(g16
S'\xb6\xc4\x1d\xb5)\xebQ?'
p4519
tp4520
Rp4521
sg4493
g12
(g16
S'\xa0\xc1Nn\xef\x13R?'
p4522
tp4523
Rp4524
sg4494
g12
(g16
S'\x96u\x17\xa6\xad\x96R?'
p4525
tp4526
Rp4527
sg4495
g12
(g16
S'\x84[\xd9\xf4|\xd8R?'
p4528
tp4529
Rp4530
saa(lp4531
I8
aS'Y8'
p4532
aI3
a(dp4533
g4491
F0.0
sg4492
F0.0
sg4493
F0.0
sg4494
F0.0
sg4495
F0.0
sa(dp4534
g4491
g12
(g16
S'\xc9\xeb7\x04\xdfDU?'
p4535
tp4536
Rp4537
sg4492
g12
(g16
S'\x98.\x89\xf6\x86:T?'
p4538
tp4539
Rp4540
sg4493
g12
(g16
S'\xaa\xedj\x81\xc5eT?'
p4541
tp4542
Rp4543
sg4494
g12
(g16
S'X\x88\xa8\xe0\xb6\xfcT?'
p4544
tp4545
Rp4546
sg4495
g12
(g16
S'q\xc5\xabP\xb58U?'
p4547
tp4548
Rp4549
saa(lp4550
I8
aS'Y8'
p4551
aI4
a(dp4552
g4491
F0.0
sg4492
F0.0
sg4493
F0.0
sg4494
F0.0
sg4495
F0.0
sa(dp4553
g4491
g12
(g16
S'b\xa2+\xb6;\rX?'
p4554
tp4555
Rp4556
sg4492
g12
(g16
S'm-\xe7-!\xedV?'
p4557
tp4558
Rp4559
sg4493
g12
(g16
S'\x8d\x08W\x8e|\x15W?'
p4560
tp4561
Rp4562
sg4494
g12
(g16
S'\x1d\x176\x8c\xb8\xc9W?'
p4563
tp4564
Rp4565
sg4495
g12
(g16
S"\x87\xeb'\x01\x80\xedW?"
p4566
tp4567
Rp4568
saa(lp4569
I8
aS'Y8'
p4570
aI5
a(dp4571
g4491
F0.0
sg4492
F0.0
sg4493
F0.0
sg4494
F0.0
sg4495
F0.0
sa(dp4572
g4491
g12
(g16
S'f0\x80\xde\xa2\xd3Z?'
p4573
tp4574
Rp4575
sg4492
g12
(g16
S'\xcf\xbb\xc3\xeb|\xaeY?'
p4576
tp4577
Rp4578
sg4493
g12
(g16
S'T\xd4\x90\xbe\xa1\xc8Y?'
p4579
tp4580
Rp4581
sg4494
g12
(g16
S'\n\xb1{h\x89\xa5Z?'
p4582
tp4583
Rp4584
sg4495
g12
(g16
S'\xad\x02\xd5z\x12\x91Z?'
p4585
tp4586
Rp4587
saa(lp4588
I8
aS'Y8'
p4589
aI6
a(dp4590
g4491
F0.0
sg4492
F0.0
sg4493
F0.0
sg4494
F0.0
sg4495
F0.0
sa(dp4591
g4491
g12
(g16
S'\x83\xe73\t-\xa0\\?'
p4592
tp4593
Rp4594
sg4492
g12
(g16
S'K\x9e\xbf\x9b\xfb\x93[?'
p4595
tp4596
Rp4597
sg4493
g12
(g16
S'\xcf#:F\x8e\x91[?'
p4598
tp4599
Rp4600
sg4494
g12
(g16
S'\xcd\xfaN\x9cw\x9c\\?'
p4601
tp4602
Rp4603
sg4495
g12
(g16
S'\x97@\xbe\xb5\x9c-\\?'
p4604
tp4605
Rp4606
saa(lp4607
I8
aS'Y8'
p4608
aI7
a(dp4609
g4491
F0.0
sg4492
F0.0
sg4493
F0.0
sg4494
F0.0
sg4495
F0.0
sa(dp4610
g4491
g12
(g16
S'\xc4\xccj\x16B\xd7[?'
p4611
tp4612
Rp4613
sg4492
g12
(g16
S'D\xb9\xfb\xdfl\x05[?'
p4614
tp4615
Rp4616
sg4493
g12
(g16
S'!\x9e\xc5\xeb#\xe0Z?'
p4617
tp4618
Rp4619
sg4494
g12
(g16
S'X?\x86\xbeH\x07\\?'
p4620
tp4621
Rp4622
sg4495
g12
(g16
S'iD\xe3\n\xf19[?'
p4623
tp4624
Rp4625
saa(lp4626
I8
aS'Y8'
p4627
aI8
a(dp4628
g4491
F0.0
sg4492
F0.0
sg4493
F0.0
sg4494
F0.0
sg4495
F0.0
sa(dp4629
g4491
g12
(g16
S'\xf7\x84\xab\xf4=\xd2V?'
p4630
tp4631
Rp4632
sg4492
g12
(g16
S'\xcf\x87cLXMV?'
p4633
tp4634
Rp4635
sg4493
g12
(g16
S'V-\xd5\x1a\xd1\x13V?'
p4636
tp4637
Rp4638
sg4494
g12
(g16
S'\xaa]?&\xfb W?'
p4639
tp4640
Rp4641
sg4495
g12
(g16
S'\xec\xd2\x8a*\xe4/V?'
p4642
tp4643
Rp4644
saa(lp4645
I8
aS'Y8'
p4646
aI9
a(dp4647
g4491
F0.0
sg4492
F0.0
sg4493
F0.0
sg4494
F0.0
sg4495
F0.0
sa(dp4648
g4491
g12
(g16
S'\x11\xb1\x16\xa5_\x0fJ?'
p4649
tp4650
Rp4651
sg4492
g12
(g16
S'\xa0\x901\xfe \x97I?'
p4652
tp4653
Rp4654
sg4493
g12
(g16
S'Nb\x80\xa2\xb0?I?'
p4655
tp4656
Rp4657
sg4494
g12
(g16
S'\xa5jYT\xc8\x88J?'
p4658
tp4659
Rp4660
sg4495
g12
(g16
S'\xf6\x82!\xaf\x0c<I?'
p4661
tp4662
Rp4663
saa(lp4664
I8
aS'Y8'
p4665
aI10
a(dp4666
g4491
F0.0
sg4492
F0.0
sg4493
F0.0
sg4494
F0.0
sg4495
F0.0
sa(dp4667
g4491
g12
(g16
S'\x00\x00\x00\x00\x00\x00\x00\x00'
p4668
tp4669
Rp4670
sg4492
g12
(g16
S'\x00\x00\x00\x00\x00\x00\x00\x00'
p4671
tp4672
Rp4673
sg4493
g12
(g16
S'\x00\x00\x00\x00\x00\x00\x00\x00'
p4674
tp4675
Rp4676
sg4494
g12
(g16
S'\x00\x00\x00\x00\x00\x00\x00\x00'
p4677
tp4678
Rp4679
sg4495
g12
(g16
S'\x00\x00\x00\x00\x00\x00\x00\x00'
p4680
tp4681
Rp4682
saa(lp4683
I8
aS'Y8'
p4684
aI11
a(dp4685
g4491
F0.0
sg4492
F0.0
sg4493
F0.0
sg4494
F0.0
sg4495
F0.0
sa(dp4686
g4491
g12
(g16
S'OQ$K\xc4\x0eJ\xbf'
p4687
tp4688
Rp4689
sg4492
g12
(g16
S'\xb7\x0069\xbc\x96I\xbf'
p4690
tp4691
Rp4692
sg4493
g12
(g16
S'6\xb6\xf98K?I\xbf'
p4693
tp4694
Rp4695
sg4494
g12
(g16
S'\x08\xa6W\x1e \x88J\xbf'
p4696
tp4697
Rp4698
sg4495
g12
(g16
S'\xea5x\xa0\x98;I\xbf'
p4699
tp4700
Rp4701
saa(lp4702
I8
aS'Y8'
p4703
aI12
a(dp4704
g4491
F0.0
sg4492
F0.0
sg4493
F0.0
sg4494
F0.0
sg4495
F0.0
sa(dp4705
g4491
g12
(g16
S'f73G\x1e\xd1V\xbf'
p4706
tp4707
Rp4708
sg4492
g12
(g16
S'.\xd5\x15\xc8\x83LV\xbf'
p4709
tp4710
Rp4711
sg4493
g12
(g16
S'\xbe\xc4\xa2\xb9\x07\x13V\xbf'
p4712
tp4713
Rp4714
sg4494
g12
(g16
S'dZ\x82\x87\xbf\x1fW\xbf'
p4715
tp4716
Rp4717
sg4495
g12
(g16
S'\x8c\x99\x1d\x8b\x0b/V\xbf'
p4718
tp4719
Rp4720
saa(lp4721
I8
aS'Y8'
p4722
aI13
a(dp4723
g4491
F0.0
sg4492
F0.0
sg4493
F0.0
sg4494
F0.0
sg4495
F0.0
sa(dp4724
g4491
g12
(g16
S'\x81\x1cR_^\xd5[\xbf'
p4725
tp4726
Rp4727
sg4492
g12
(g16
S'>I\\\xde\x14\x04[\xbf'
p4728
tp4729
Rp4730
sg4493
g12
(g16
S'\xd7\xe6a\x07\xd3\xdeZ\xbf'
p4731
tp4732
Rp4733
sg4494
g12
(g16
S'\xf9\xa7\x0b\x92X\x05\\\xbf'
p4734
tp4735
Rp4736
sg4495
g12
(g16
S'\xbb\xbfk\xb2\x848[\xbf'
p4737
tp4738
Rp4739
saa(lp4740
I8
aS'Y8'
p4741
aI14
a(dp4742
g4491
F0.0
sg4492
F0.0
sg4493
F0.0
sg4494
F0.0
sg4495
F0.0
sa(dp4743
g4491
g12
(g16
S':\xb4"\xc2\x01\x9c\\\xbf'
p4744
tp4745
Rp4746
sg4492
g12
(g16
S'\x94\x15\x9d\xc7\x9d\x90[\xbf'
p4747
tp4748
Rp4749
sg4493
g12
(g16
S'\x01webT\x8e[\xbf'
p4750
tp4751
Rp4752
sg4494
g12
(g16
S'\x81\x17\xb5\x08L\x98\\\xbf'
p4753
tp4754
Rp4755
sg4495
g12
(g16
S'&\tT\x9b\x1e*\\\xbf'
p4756
tp4757
Rp4758
saa(lp4759
I8
aS'Y8'
p4760
aI15
a(dp4761
g4491
F0.0
sg4492
F0.0
sg4493
F0.0
sg4494
F0.0
sg4495
F0.0
sa(dp4762
g4491
g12
(g16
S'\xc7I\x04\x00v\xcfZ\xbf'
p4763
tp4764
Rp4765
sg4492
g12
(g16
S'\xbe:\xe3\xe8\x1c\xabY\xbf'
p4766
tp4767
Rp4768
sg4493
g12
(g16
S'\x9c~\xcf\xd7_\xc5Y\xbf'
p4769
tp4770
Rp4771
sg4494
g12
(g16
S'k\xc6\xc1\x84N\xa1Z\xbf'
p4772
tp4773
Rp4774
sg4495
g12
(g16
S'-?\xfdZ\x92\x8dZ\xbf'
p4775
tp4776
Rp4777
saa(lp4778
I8
aS'Y8'
p4779
aI16
a(dp4780
g4491
F0.0
sg4492
F0.0
sg4493
F0.0
sg4494
F0.0
sg4495
F0.0
sa(dp4781
g4491
g12
(g16
S'k\xfe\x83K,\x08X\xbf'
p4782
tp4783
Rp4784
sg4492
g12
(g16
S'\xf9TP\x9c\xfb\xe8V\xbf'
p4785
tp4786
Rp4787
sg4493
g12
(g16
S'\x85L\x98\xb5a\x11W\xbf'
p4788
tp4789
Rp4790
sg4494
g12
(g16
S'Y$\\F\xb4\xc4W\xbf'
p4791
tp4792
Rp4793
sg4495
g12
(g16
S'\x9f\xe2\x8c\x88(\xe9W\xbf'
p4794
tp4795
Rp4796
saa(lp4797
I8
aS'Y8'
p4798
aI17
a(dp4799
g4491
F0.0
sg4492
F0.0
sg4493
F0.0
sg4494
F0.0
sg4495
F0.0
sa(dp4800
g4491
g12
(g16
S'>A\xff+\xe9?U\xbf'
p4801
tp4802
Rp4803
sg4492
g12
(g16
S'ZEj*u6T\xbf'
p4804
tp4805
Rp4806
sg4493
g12
(g16
S'/\xeb\xe7\x1b\xc7aT\xbf'
p4807
tp4808
Rp4809
sg4494
g12
(g16
S'k\xcd\x0e\x03\xc8\xf7T\xbf'
p4810
tp4811
Rp4812
sg4495
g12
(g16
S'd\\,\x15z4U\xbf'
p4813
tp4814
Rp4815
saa(lp4816
I8
aS'Y8'
p4817
aI18
a(dp4818
g4491
F0.0
sg4492
F0.0
sg4493
F0.0
sg4494
F0.0
sg4495
F0.0
sa(dp4819
g4491
g12
(g16
S'\x15\xe7\x891\xfa\xd5R\xbf'
p4820
tp4821
Rp4822
sg4492
g12
(g16
S'\xa4P\xa8s\xcd\xe6Q\xbf'
p4823
tp4824
Rp4825
sg4493
g12
(g16
S'T+\x0b\xd5\xa0\x0fR\xbf'
p4826
tp4827
Rp4828
sg4494
g12
(g16
S'Q\xa8\x11\xc8d\x91R\xbf'
p4829
tp4830
Rp4831
sg4495
g12
(g16
S'\xecI\xbfa\xed\xd3R\xbf'
p4832
tp4833
Rp4834
saa(lp4835
I8
aS'Y8'
p4836
aI19
a(dp4837
g4491
F0.0
sg4492
F0.0
sg4493
F0.0
sg4494
F0.0
sg4495
F0.0
sa(dp4838
g4491
g12
(g16
S'\xc9\xc6m\x9e\xf2\xd8P\xbf'
p4839
tp4840
Rp4841
sg4492
g12
(g16
S')\xc1\xf3\x9a<\x02P\xbf'
p4842
tp4843
Rp4844
sg4493
g12
(g16
S"\xae\x0f<\xf0\x1f'P\xbf"
p4845
tp4846
Rp4847
sg4494
g12
(g16
S'\xb4>\xa7\xf0I\x9aP\xbf'
p4848
tp4849
Rp4850
sg4495
g12
(g16
S'+\xe0.\xe9\x1e\xdbP\xbf'
p4851
tp4852
Rp4853
saasS'Scan_9'
p4854
(lp4855
(lp4856
I9
aS'X9'
p4857
aI1
a(dp4858
S'281'
p4859
g12
(g16
S'm^\xb1m\xd5\xc7K\xbf'
p4860
tp4861
Rp4862
sS'1783'
p4863
g12
(g16
S'\xc4G\xcb\xa5xkJ\xbf'
p4864
tp4865
Rp4866
sS'872'
p4867
g12
(g16
S'\x08m\xad5\xf0\xacJ\xbf'
p4868
tp4869
Rp4870
sS'2063'
p4871
g12
(g16
S'\x94MLW\xe8_K\xbf'
p4872
tp4873
Rp4874
sS'41'
p4875
g12
(g16
S'\x96\xfed\x9a\xd4\xe8K\xbf'
p4876
tp4877
Rp4878
sa(dp4879
g4859
F0.0
sg4863
F0.0
sg4867
F0.0
sg4871
F0.0
sg4875
F0.0
saa(lp4880
I9
aS'X9'
p4881
aI2
a(dp4882
g4859
g12
(g16
S'\xb8+\x96O\xce^N\xbf'
p4883
tp4884
Rp4885
sg4863
g12
(g16
S'\xd6\x1e\x90\x11c\xe2L\xbf'
p4886
tp4887
Rp4888
sg4867
g12
(g16
S'yF\xad\t|+M\xbf'
p4889
tp4890
Rp4891
sg4871
g12
(g16
S'\xcc\xa5\xb1BQ\xedM\xbf'
p4892
tp4893
Rp4894
sg4875
g12
(g16
S'\x89\xc4\x05|\x81\x84N\xbf'
p4895
tp4896
Rp4897
sa(dp4898
g4859
F0.0
sg4863
F0.0
sg4867
F0.0
sg4871
F0.0
sg4875
F0.0
saa(lp4899
I9
aS'X9'
p4900
aI3
a(dp4901
g4859
g12
(g16
S'y\xde\xd6\xb8\x18\xbeP\xbf'
p4902
tp4903
Rp4904
sg4863
g12
(g16
S'\x11\x01\xd7|\x19\xdaO\xbf'
p4905
tp4906
Rp4907
sg4867
g12
(g16
S'\x06:&Y%\x16P\xbf'
p4908
tp4909
Rp4910
sg4871
g12
(g16
S'8\xf6\xb6\xa5\xd6\x7fP\xbf'
p4911
tp4912
Rp4913
sg4875
g12
(g16
S'\xe3\x9e\xe3\xba\xd0\xd3P\xbf'
p4914
tp4915
Rp4916
sa(dp4917
g4859
F0.0
sg4863
F0.0
sg4867
F0.0
sg4871
F0.0
sg4875
F0.0
saa(lp4918
I9
aS'X9'
p4919
aI4
a(dp4920
g4859
g12
(g16
S'\xb2\xbb!\x06A\xa3R\xbf'
p4921
tp4922
Rp4923
sg4863
g12
(g16
S'\xd5\xb8\xc6\xfa\x97\xbcQ\xbf'
p4924
tp4925
Rp4926
sg4867
g12
(g16
S'~\x8f\x05\x85\x8f\xeaQ\xbf'
p4927
tp4928
Rp4929
sg4871
g12
(g16
S'/\xea\xb5\xf6\x06_R\xbf'
p4930
tp4931
Rp4932
sg4875
g12
(g16
S'e\xd5\x1c\xdc\xf3\xbbR\xbf'
p4933
tp4934
Rp4935
sa(dp4936
g4859
F0.0
sg4863
F0.0
sg4867
F0.0
sg4871
F0.0
sg4875
F0.0
saa(lp4937
I9
aS'X9'
p4938
aI5
a(dp4939
g4859
g12
(g16
S'\x81\xe1\xda\x17>\xefT\xbf'
p4940
tp4941
Rp4942
sg4863
g12
(g16
S'\xee\x84b\xf0\xf8\xf1S\xbf'
p4943
tp4944
Rp4945
sg4867
g12
(g16
S'\x80\x16\x0b\x91g#T\xbf'
p4946
tp4947
Rp4948
sg4871
g12
(g16
S'-\xf9dB\xcd\xa5T\xbf'
p4949
tp4950
Rp4951
sg4875
g12
(g16
S'\x83\xe0/\xf8\xd4\tU\xbf'
p4952
tp4953
Rp4954
sa(dp4955
g4859
F0.0
sg4863
F0.0
sg4867
F0.0
sg4871
F0.0
sg4875
F0.0
saa(lp4956
I9
aS'X9'
p4957
aI6
a(dp4958
g4859
g12
(g16
S'q\xfbn_8\xa0W\xbf'
p4959
tp4960
Rp4961
sg4863
g12
(g16
S'%\x9ei\x9dG\x90V\xbf'
p4962
tp4963
Rp4964
sg4867
g12
(g16
S'\xe6\x8cc\x14\xdb\xbfV\xbf'
p4965
tp4966
Rp4967
sg4871
g12
(g16
S'\xdfC\xcez-UW\xbf'
p4968
tp4969
Rp4970
sg4875
g12
(g16
S'\x08|\x95/\x02\xb9W\xbf'
p4971
tp4972
Rp4973
sa(dp4974
g4859
F0.0
sg4863
F0.0
sg4867
F0.0
sg4871
F0.0
sg4875
F0.0
saa(lp4975
I9
aS'X9'
p4976
aI7
a(dp4977
g4859
g12
(g16
S'\xbc\xf5\xe8Y\xa9\x81Z\xbf'
p4978
tp4979
Rp4980
sg4863
g12
(g16
S'\x15\x17\xc3D\xc3kY\xbf'
p4981
tp4982
Rp4983
sg4867
g12
(g16
S'{\xbb\x84v%\x8eY\xbf'
p4984
tp4985
Rp4986
sg4871
g12
(g16
S'\xd3\x9e\xb2\x0c\xcf<Z\xbf'
p4987
tp4988
Rp4989
sg4875
g12
(g16
S'\xf7\x88\xaf\xb3\xe0\x90Z\xbf'
p4990
tp4991
Rp4992
sa(dp4993
g4859
F0.0
sg4863
F0.0
sg4867
F0.0
sg4871
F0.0
sg4875
F0.0
saa(lp4994
I9
aS'X9'
p4995
aI8
a(dp4996
g4859
g12
(g16
S'\x11?\x97\xfeE\xfd\\\xbf'
p4997
tp4998
Rp4999
sg4863
g12
(g16
S'\xbf\xc2\x16>\x92\xf8[\xbf'
p5000
tp5001
Rp5002
sg4867
g12
(g16
S'\xe8e1\x13r\xfd[\xbf'
p5003
tp5004
Rp5005
sg4871
g12
(g16
S'J\xbdC1P\xca\\\xbf'
p5006
tp5007
Rp5008
sg4875
g12
(g16
S'}p\xc7]D\xf8\\\xbf'
p5009
tp5010
Rp5011
sa(dp5012
g4859
F0.0
sg4863
F0.0
sg4867
F0.0
sg4871
F0.0
sg4875
F0.0
saa(lp5013
I9
aS'X9'
p5014
aI9
a(dp5015
g4859
g12
(g16
S'\xb0\xa4<}\xe2\xfe]\xbf'
p5016
tp5017
Rp5018
sg4863
g12
(g16
S"\xe6\xa0\x94Uf']\xbf"
p5019
tp5020
Rp5021
sg4867
g12
(g16
S'\xe8{\x9a\xf8|\x01]\xbf'
p5022
tp5023
Rp5024
sg4871
g12
(g16
S'\x95\xf3\xf9z\xaa\xe8]\xbf'
p5025
tp5026
Rp5027
sg4875
g12
(g16
S'\xe2\xd8\xcf\xfe\x80\xdd]\xbf'
p5028
tp5029
Rp5030
sa(dp5031
g4859
F0.0
sg4863
F0.0
sg4867
F0.0
sg4871
F0.0
sg4875
F0.0
saa(lp5032
I9
aS'X9'
p5033
aI10
a(dp5034
g4859
g12
(g16
S'\xdb\x91\xe25\xfb#\\\xbf'
p5035
tp5036
Rp5037
sg4863
g12
(g16
S'@\xf7\x9f\x92\n\x8e[\xbf'
p5038
tp5039
Rp5040
sg4867
g12
(g16
S'\x96\x8fV\x16\x03@[\xbf'
p5041
tp5042
Rp5043
sg4871
g12
(g16
S'\x02\xec2\xd3m,\\\xbf'
p5044
tp5045
Rp5046
sg4875
g12
(g16
S'\xfa\xecI\xfc\x1b\xe9[\xbf'
p5047
tp5048
Rp5049
sa(dp5050
g4859
F0.0
sg4863
F0.0
sg4867
F0.0
sg4871
F0.0
sg4875
F0.0
saa(lp5051
I9
aS'X9'
p5052
aI11
a(dp5053
g4859
g12
(g16
S'`r1)gNV\xbf'
p5054
tp5055
Rp5056
sg4863
g12
(g16
S'\xc2U6\x15\x1e\xfbU\xbf'
p5057
tp5058
Rp5059
sg4867
g12
(g16
S'\x89y\x19\xa4\xde\x9fU\xbf'
p5060
tp5061
Rp5062
sg4871
g12
(g16
S'\x85\xea\\f\x03iV\xbf'
p5063
tp5064
Rp5065
sg4875
g12
(g16
S'\xc7\xc6dx\xe5\x0cV\xbf'
p5066
tp5067
Rp5068
sa(dp5069
g4859
F0.0
sg4863
F0.0
sg4867
F0.0
sg4871
F0.0
sg4875
F0.0
saa(lp5070
I9
aS'X9'
p5071
aI12
a(dp5072
g4859
g12
(g16
S'\xc8\x8e\xe6\x98\xa2\xe1H\xbf'
p5073
tp5074
Rp5075
sg4863
g12
(g16
S'\xe7|\xc7\xfcM\x9fH\xbf'
p5076
tp5077
Rp5078
sg4867
g12
(g16
S'&\xf8&\xa7a#H\xbf'
p5079
tp5080
Rp5081
sg4871
g12
(g16
S'\xdb3\x8f\xe4+\x0eI\xbf'
p5082
tp5083
Rp5084
sg4875
g12
(g16
S'\\}\xb8q{\x8aH\xbf'
p5085
tp5086
Rp5087
sa(dp5088
g4859
F0.0
sg4863
F0.0
sg4867
F0.0
sg4871
F0.0
sg4875
F0.0
saa(lp5089
I9
aS'X9'
p5090
aI13
a(dp5091
g4859
g12
(g16
S'\x00\x00\x00\x00\x00\x00\x00\x00'
p5092
tp5093
Rp5094
sg4863
g12
(g16
S'\x00\x00\x00\x00\x00\x00\x00\x00'
p5095
tp5096
Rp5097
sg4867
g12
(g16
S'\x00\x00\x00\x00\x00\x00\x00\x00'
p5098
tp5099
Rp5100
sg4871
g12
(g16
S'\x00\x00\x00\x00\x00\x00\x00\x00'
p5101
tp5102
Rp5103
sg4875
g12
(g16
S'\x00\x00\x00\x00\x00\x00\x00\x00'
p5104
tp5105
Rp5106
sa(dp5107
g4859
F0.0
sg4863
F0.0
sg4867
F0.0
sg4871
F0.0
sg4875
F0.0
saa(lp5108
I9
aS'X9'
p5109
aI14
a(dp5110
g4859
g12
(g16
S'\xf9\x94\x0c\xae\x8f\xe1H?'
p5111
tp5112
Rp5113
sg4863
g12
(g16
S'm\x0cz\xd4P\x9fH?'
p5114
tp5115
Rp5116
sg4867
g12
(g16
S'O\x1c87I#H?'
p5117
tp5118
Rp5119
sg4871
g12
(g16
S'@\xdaI\xc1\x08\x0eI?'
p5120
tp5121
Rp5122
sg4875
g12
(g16
S'\xbd\\\xda\x85r\x8aH?'
p5123
tp5124
Rp5125
sa(dp5126
g4859
F0.0
sg4863
F0.0
sg4867
F0.0
sg4871
F0.0
sg4875
F0.0
saa(lp5127
I9
aS'X9'
p5128
aI15
a(dp5129
g4859
g12
(g16
S'\x13\xd4\xb3\\\xd0MV?'
p5130
tp5131
Rp5132
sg4863
g12
(g16
S'\xd3\xc9\xd3\xa5\x97\xfaU?'
p5133
tp5134
Rp5135
sg4867
g12
(g16
S'\xacbu\x04c\x9fU?'
p5136
tp5137
Rp5138
sg4871
g12
(g16
S'_\xb7\xd1\xbbWhV?'
p5139
tp5140
Rp5141
sg4875
g12
(g16
S'>~ [d\x0cV?'
p5142
tp5143
Rp5144
sa(dp5145
g4859
F0.0
sg4863
F0.0
sg4867
F0.0
sg4871
F0.0
sg4875
F0.0
saa(lp5146
I9
aS'X9'
p5147
aI16
a(dp5148
g4859
g12
(g16
S'\x80*\x12\xba\xa1"\\?'
p5149
tp5150
Rp5151
sg4863
g12
(g16
S')\x9c\xbd\xfc\xd4\x8c[?'
p5152
tp5153
Rp5154
sg4867
g12
(g16
S'n\x98\x81\xbd\xe7>[?'
p5155
tp5156
Rp5157
sg4871
g12
(g16
S'yO\x9e\x8a\xfc*\\?'
p5158
tp5159
Rp5160
sg4875
g12
(g16
S'{\xd2\xc3y\xeb\xe7[?'
p5161
tp5162
Rp5163
sa(dp5164
g4859
F0.0
sg4863
F0.0
sg4867
F0.0
sg4871
F0.0
sg4875
F0.0
saa(lp5165
I9
aS'X9'
p5166
aI17
a(dp5167
g4859
g12
(g16
S'\xcb\x1b\tQ\xbb\xfc]?'
p5168
tp5169
Rp5170
sg4863
g12
(g16
S'z\x83\x91\xe7q%]?'
p5171
tp5172
Rp5173
sg4867
g12
(g16
S'%\x0b\xe7\x07\xb4\xff\\?'
p5174
tp5175
Rp5176
sg4871
g12
(g16
S'b7\xdb\xd0^\xe6]?'
p5177
tp5178
Rp5179
sg4875
g12
(g16
S'\xd1Zv\x8b\x9b\xdb]?'
p5180
tp5181
Rp5182
sa(dp5183
g4859
F0.0
sg4863
F0.0
sg4867
F0.0
sg4871
F0.0
sg4875
F0.0
saa(lp5184
I9
aS'X9'
p5185
aI18
a(dp5186
g4859
g12
(g16
S'Tv\xe7\xfe\x84\xf9\\?'
p5187
tp5188
Rp5189
sg4863
g12
(g16
S")y$\x04'\xf5[?"
p5190
tp5191
Rp5192
sg4867
g12
(g16
S'\xc1H\xc4\xab8\xfa[?'
p5193
tp5194
Rp5195
sg4871
g12
(g16
S'm\xfc\x9d\x1fg\xc6\\?'
p5196
tp5197
Rp5198
sg4875
g12
(g16
S'\xbc\x9ap.\xcb\xf4\\?'
p5199
tp5200
Rp5201
sa(dp5202
g4859
F0.0
sg4863
F0.0
sg4867
F0.0
sg4871
F0.0
sg4875
F0.0
saa(lp5203
I9
aS'X9'
p5204
aI19
a(dp5205
g4859
g12
(g16
S'@\x81\xb5\x9d1~Z?'
p5206
tp5207
Rp5208
sg4863
g12
(g16
S'K\xd2|~\xb3hY?'
p5209
tp5210
Rp5211
sg4867
g12
(g16
S'@\xe0V\x8d+\x8bY?'
p5212
tp5213
Rp5214
sg4871
g12
(g16
S'w"\x84\x96%9Z?'
p5215
tp5216
Rp5217
sg4875
g12
(g16
S'\x06}\xf2N\xb8\x8dZ?'
p5218
tp5219
Rp5220
sa(dp5221
g4859
F0.0
sg4863
F0.0
sg4867
F0.0
sg4871
F0.0
sg4875
F0.0
saa(lp5222
I9
aS'X9'
p5223
aI20
a(dp5224
g4859
g12
(g16
S'\x0c\xedu\xc9\xc2\x9cW?'
p5225
tp5226
Rp5227
sg4863
g12
(g16
S'm\xe3\xf8$:\x8dV?'
p5228
tp5229
Rp5230
sg4867
g12
(g16
S'{\x8fp\xf7\xe0\xbcV?'
p5231
tp5232
Rp5233
sg4871
g12
(g16
S'\xc3>}\xfb{QW?'
p5234
tp5235
Rp5236
sg4875
g12
(g16
S'\x02E\x07\x12\xdb\xb5W?'
p5237
tp5238
Rp5239
sa(dp5240
g4859
F0.0
sg4863
F0.0
sg4867
F0.0
sg4871
F0.0
sg4875
F0.0
saa(lp5241
I9
aS'X9'
p5242
aI21
a(dp5243
g4859
g12
(g16
S'\xca\x18eq\xde\xebT?'
p5244
tp5245
Rp5246
sg4863
g12
(g16
S'\xa4z\xae^\x01\xefS?'
p5247
tp5248
Rp5249
sg4867
g12
(g16
S'\x91\xc5\x1f\xe8\x82 T?'
p5250
tp5251
Rp5252
sg4871
g12
(g16
S'9\x99%WA\xa2T?'
p5253
tp5254
Rp5255
sg4875
g12
(g16
S's\x8d\x0b\x8b\xc7\x06U?'
p5256
tp5257
Rp5258
sa(dp5259
g4859
F0.0
sg4863
F0.0
sg4867
F0.0
sg4871
F0.0
sg4875
F0.0
saa(lp5260
I9
aS'X9'
p5261
aI22
a(dp5262
g4859
g12
(g16
S'\x89\xd1\x1f\xfdD\xa0R?'
p5263
tp5264
Rp5265
sg4863
g12
(g16
S'$\xb7\xa6\xc1\xf0\xb9Q?'
p5266
tp5267
Rp5268
sg4867
g12
(g16
S'p\x08y\xef\x01\xe8Q?'
p5269
tp5270
Rp5271
sg4871
g12
(g16
S'\xcd\xa8Y\xec\xd9[R?'
p5272
tp5273
Rp5274
sg4875
g12
(g16
S'\xa9;r\xcd;\xb9R?'
p5275
tp5276
Rp5277
sa(dp5278
g4859
F0.0
sg4863
F0.0
sg4867
F0.0
sg4871
F0.0
sg4875
F0.0
saa(lp5279
I9
aS'X9'
p5280
aI23
a(dp5281
g4859
g12
(g16
S'\t\xb9\x1edI\xbbP?'
p5282
tp5283
Rp5284
sg4863
g12
(g16
S'X\xc7\xe4\xdd\x14\xd5O?'
p5285
tp5286
Rp5287
sg4867
g12
(g16
S'W!Rx\xc0\x13P?'
p5288
tp5289
Rp5290
sg4871
g12
(g16
S'\x9c\x15\xf3\x92\xde|P?'
p5291
tp5292
Rp5293
sg4875
g12
(g16
S'U\xfe\xae\x8a:\xd1P?'
p5294
tp5295
Rp5296
sa(dp5297
g4859
F0.0
sg4863
F0.0
sg4867
F0.0
sg4871
F0.0
sg4875
F0.0
saa(lp5298
I9
aS'X9'
p5299
aI24
a(dp5300
g4859
g12
(g16
S'<\xd5>\xa4\xd8XN?'
p5301
tp5302
Rp5303
sg4863
g12
(g16
S'\x81\x87\xb8]\x12\xddL?'
p5304
tp5305
Rp5306
sg4867
g12
(g16
S'\xce\x02\x8en\\&M?'
p5307
tp5308
Rp5309
sg4871
g12
(g16
S"\xdb\x12\x95\x01'\xe7M?"
p5310
tp5311
Rp5312
sg4875
g12
(g16
S'\xcfn\xe8y\x04\x7fN?'
p5313
tp5314
Rp5315
sa(dp5316
g4859
F0.0
sg4863
F0.0
sg4867
F0.0
sg4871
F0.0
sg4875
F0.0
saa(lp5317
I9
aS'X9'
p5318
aI25
a(dp5319
g4859
g12
(g16
S'<\xeb\xb0\xd4-\xc1K?'
p5320
tp5321
Rp5322
sg4863
g12
(g16
S'\xb2\x89~_~eJ?'
p5323
tp5324
Rp5325
sg4867
g12
(g16
S'\x83N\x9d\xe8#\xa7J?'
p5326
tp5327
Rp5328
sg4871
g12
(g16
S'\xf2\n\x08\xe3\x13YK?'
p5329
tp5330
Rp5331
sg4875
g12
(g16
S'\xbf \x8b\xcb\xaa\xe2K?'
p5332
tp5333
Rp5334
sa(dp5335
g4859
F0.0
sg4863
F0.0
sg4867
F0.0
sg4871
F0.0
sg4875
F0.0
saas.